
output/STM32_LoRa_v2.0.elf:     file format elf32-littlearm

SYMBOL TABLE:
08000000 l    d  .isr_vector	00000000 .isr_vector
08000190 l    d  .text	00000000 .text
0800aeac l    d  .rodata	00000000 .rodata
0800b3a0 l    d  .ARM	00000000 .ARM
0800b3a8 l    d  .init_array	00000000 .init_array
0800b3ac l    d  .fini_array	00000000 .fini_array
20000000 l    d  .data	00000000 .data
20000850 l    d  .bss	00000000 .bss
20005334 l    d  ._user_heap_stack	00000000 ._user_heap_stack
00000000 l    d  .ARM.attributes	00000000 .ARM.attributes
00000000 l    d  .debug_frame	00000000 .debug_frame
00000000 l    d  .debug_info	00000000 .debug_info
00000000 l    d  .debug_abbrev	00000000 .debug_abbrev
00000000 l    d  .debug_aranges	00000000 .debug_aranges
00000000 l    d  .debug_line	00000000 .debug_line
00000000 l    d  .debug_str	00000000 .debug_str
00000000 l    d  .comment	00000000 .comment
00000000 l    d  .debug_ranges	00000000 .debug_ranges
00000000 l    d  .stab	00000000 .stab
00000000 l    d  .stabstr	00000000 .stabstr
00000000 l    df *ABS*	00000000 build/Startup.o
080099f0 l       .text	00000000 Infinite_Loop
08009a08 l       .text	00000000 LoopCopyDataInit
08009a02 l       .text	00000000 CopyDataInit
08009a1a l       .text	00000000 LoopFillZerobss
08009a16 l       .text	00000000 FillZerobss
08009a26 l       .text	00000000 LoopForever
00000000 l    df *ABS*	00000000 x:/arm_none_eabi/10_2020-q4-major/bin/../lib/gcc/arm-none-eabi/10.2.1/thumb/v7e-m+fp/hard/crti.o
00000000 l    df *ABS*	00000000 crtstuff.c
0800aeac l     O .rodata	00000000 all_implied_fbits
0800ae90 l     O .text	00000000 __EH_FRAME_BEGIN__
08000190 l     F .text	00000000 __do_global_dtors_aux
20000850 l       .bss	00000001 completed.1
0800b3ac l     O .fini_array	00000000 __do_global_dtors_aux_fini_array_entry
080001b4 l     F .text	00000000 frame_dummy
20000854 l       .bss	00000018 object.0
0800b3a8 l     O .init_array	00000000 __frame_dummy_init_array_entry
00000000 l    df *ABS*	00000000 x:/arm_none_eabi/10_2020-q4-major/bin/../lib/gcc/arm-none-eabi/10.2.1/../../../../arm-none-eabi/lib/thumb/v7e-m+fp/hard/crt0.o
00000000 l    df *ABS*	00000000 exit.c
00000000 l    df *ABS*	00000000 impure.c
200007ec l     O .data	00000060 impure_data
00000000 l    df *ABS*	00000000 init.c
00000000 l    df *ABS*	00000000 memset.c
00000000 l    df *ABS*	00000000 System.c
0800024c l     F .text	00000054 __NVIC_SetPriority
080002a0 l     F .text	00000044 SysTick_Config
00000000 l    df *ABS*	00000000 cli.c
00000000 l    df *ABS*	00000000 gloabal_variables.c
00000000 l    df *ABS*	00000000 main.c
08000d80 l     F .text	0000003c __NVIC_EnableIRQ
08000dbc l     F .text	00000048 __NVIC_DisableIRQ
00000000 l    df *ABS*	00000000 periph_hendlers.c
00000000 l    df *ABS*	00000000 adc.c
080016e8 l     F .text	0000003c __NVIC_EnableIRQ
00000000 l    df *ABS*	00000000 gpio.c
08001d40 l     F .text	0000003c __NVIC_EnableIRQ
20003c08 l       .bss	00000008 temp.0
00000000 l    df *ABS*	00000000 i2c.c
00000000 l    df *ABS*	00000000 one_wire.c
00000000 l    df *ABS*	00000000 pwm.c
00000000 l    df *ABS*	00000000 rcc.c
00000000 l    df *ABS*	00000000 rtc.c
080036e0 l     F .text	0000003c __NVIC_EnableIRQ
0800371c l     F .text	0000003c __NVIC_ClearPendingIRQ
08003758 l     F .text	00000054 __NVIC_SetPriority
00000000 l    df *ABS*	00000000 sdio.c
00000000 l    df *ABS*	00000000 spi.c
00000000 l    df *ABS*	00000000 tim.c
0800580c l     F .text	0000003c __NVIC_EnableIRQ
00000000 l    df *ABS*	00000000 uart.c
0800595c l     F .text	0000003c __NVIC_EnableIRQ
00000000 l    df *ABS*	00000000 delay.c
20003c74 l       .bss	00000004 count
20003c78 l       .bss	00000004 delay_count
20003c7c l       .bss	00000008 flag.1
20003c84 l       .bss	00000020 counter.0
00000000 l    df *ABS*	00000000 dwt.c
20003ca4 l       .bss	00000004 trigger.0
00000000 l    df *ABS*	00000000 formating_output.c
08005e60 l     F .text	0000004e ITM_SendChar
00000000 l    df *ABS*	00000000 low_power.c
00000000 l    df *ABS*	00000000 fat32.c
00000000 l    df *ABS*	00000000 ds18b20.c
00000000 l    df *ABS*	00000000 gsm.c
00000000 l    df *ABS*	00000000 sx126x.c
00000000 l    df *ABS*	00000000 sx1278.c
00000000 l    df *ABS*	00000000 tmp1075.c
00000000 l    df *ABS*	00000000 _arm_muldf3.o
00000000 l    df *ABS*	00000000 _arm_addsubdf3.o
00000000 l    df *ABS*	00000000 _arm_muldivdf3.o
00000000 l    df *ABS*	00000000 _arm_fixdfsi.o
00000000 l    df *ABS*	00000000 _arm_fixunsdfsi.o
00000000 l    df *ABS*	00000000 _arm_truncdfsf2.o
00000000 l    df *ABS*	00000000 malloc.c
00000000 l    df *ABS*	00000000 memcpy-stub.c
00000000 l    df *ABS*	00000000 nano-mallocr.c
00000000 l    df *ABS*	00000000 nano-mallocr.c
00000000 l    df *ABS*	00000000 sbrkr.c
00000000 l    df *ABS*	00000000 sscanf.c
00000000 l    df *ABS*	00000000 stdio.c
00000000 l    df *ABS*	00000000 strchr.c
00000000 l    df *ABS*	00000000 lib_a-strlen.o
00000000 l    df *ABS*	00000000 strstr.c
00000000 l    df *ABS*	00000000 writer.c
00000000 l    df *ABS*	00000000 closer.c
00000000 l    df *ABS*	00000000 lseekr.c
00000000 l    df *ABS*	00000000 mlock.c
00000000 l    df *ABS*	00000000 nano-vfscanf.c
00000000 l    df *ABS*	00000000 nano-vfscanf_i.c
00000000 l    df *ABS*	00000000 readr.c
00000000 l    df *ABS*	00000000 reent.c
00000000 l    df *ABS*	00000000 sccl.c
00000000 l    df *ABS*	00000000 strtol.c
0800a58c l     F .text	00000104 _strtol_l.constprop.0
00000000 l    df *ABS*	00000000 strtoul.c
0800a6bc l     F .text	000000e4 _strtoul_l.constprop.0
00000000 l    df *ABS*	00000000 ungetc.c
00000000 l    df *ABS*	00000000 ctype_.c
00000000 l    df *ABS*	00000000 errno.c
00000000 l    df *ABS*	00000000 fflush.c
00000000 l    df *ABS*	00000000 findfp.c
0800ab34 l     F .text	00000048 std
0800ab88 l     F .text	00000018 __fp_lock
0800aba0 l     F .text	00000018 __fp_unlock
00000000 l    df *ABS*	00000000 fwalk.c
00000000 l    df *ABS*	00000000 lock.c
00000000 l    df *ABS*	00000000 lib_a-memchr.o
00000000 l    df *ABS*	00000000 nano-mallocr.c
00000000 l    df *ABS*	00000000 nano-mallocr.c
00000000 l    df *ABS*	00000000 close.c
00000000 l    df *ABS*	00000000 lseek.c
00000000 l    df *ABS*	00000000 read.c
00000000 l    df *ABS*	00000000 sbrk.c
20005330 l     O .bss	00000004 heap_end.0
00000000 l    df *ABS*	00000000 _exit.c
00000000 l    df *ABS*	00000000 crtstuff.c
0800b1f8 l     O .rodata	00000000 all_implied_fbits
0800ae90 l     O .text	00000000 __FRAME_END__
00000000 l    df *ABS*	00000000 x:/arm_none_eabi/10_2020-q4-major/bin/../lib/gcc/arm-none-eabi/10.2.1/thumb/v7e-m+fp/hard/crtn.o
00000000 l    df *ABS*	00000000 
0800b3ac l       .init_array	00000000 __init_array_end
0800b3a8 l       .init_array	00000000 __preinit_array_end
0800b3a8 l       .init_array	00000000 __init_array_start
0800b3a8 l       .init_array	00000000 __preinit_array_start
0800168c g     F .text	0000005c RTC_Alarm_IRQHandler
0800ae30 g     F .text	00000010 _malloc_usable_size_r
080099f0  w    F .text	00000002 EXTI2_IRQHandler
08007d68 g     F .text	00000054 SX126x_GetRxBufferStatus
0800a188 g     F .text	000000b4 _scanf_chars
08005b6c g     F .text	0000003c UART_tx_string
080024b4 g     F .text	00000200 I2C_Read_word_u16_St_ReSt
0800a448 g     F .text	0000001a cleanup_glue
0800683c g     F .text	000000b8 GSM_InitGPRS
20000cb0 g     O .bss	000000c4 ow
08009da8 g     F .text	00000024 _lseek_r
080099f0  w    F .text	00000002 DebugMon_Handler
08005c34 g     F .text	00000018 GetMicro
08007d00 g     F .text	0000002e SX126x_SetOCP
080088b2 g     F .text	0000008c TMP1075_set_mode
080089cc g     F .text	00000090 TMP1075_one_shot_conversion_start
20003cc4 g     O .bss	00000004 fat_table_addr
08003056 g     F .text	000000a6 OneWire_SearchDevices
0800930c g     F .text	0000005a .hidden __floatdidf
08002fe6 g     F .text	00000070 OneWire_CRC8_ROM
20005326 g     O .bss	00000001 __lock___atexit_recursive_mutex
08007860 g     F .text	0000003c SX126x_SetTxParams
080099f0  w    F .text	00000002 TIM1_CC_IRQHandler
080099f0  w    F .text	00000002 TSC_IRQHandler
080026b4 g     F .text	0000020c I2C_Read_word_u24_St_ReSt
20003caa g     O .bss	00000001 BPB_SecPerClus
08009cf2 g     F .text	00000024 __sseek
0800ac20 g     F .text	00000070 __sinit
080099f0  w    F .text	00000002 HardFault_Handler
0800abb8 g     F .text	0000002c __sfmoreglue
08006ae0 g     F .text	00000070 GSM_CloseConnections
0800a970 g     F .text	00000010 ungetc
08009dd8 g     F .text	0000000c __malloc_unlock
080055d6 g     F .text	00000032 spi_xfer
080014e4 g     F .text	00000058 SEND_DATA_AND_SLEEP
08005ba8 g     F .text	0000002c SysTick_Handler
08006a40 g     F .text	00000084 GSM_SendTCP
20005324 g     O .bss	00000001 __lock___arc4random_mutex
20001178 g     O .bss	00000001 gs2_buf_ptr
08005764 g     F .text	0000004c spi_send16
080099f0  w    F .text	00000002 TAMP_STAMP_IRQHandler
08006c58 g     F .text	00000064 GSM_CheckGPRS
0800b3b0 g       *ABS*	00000000 _sidata
08006cd8 g     F .text	0000001c GSM_ActivateContext
0800abe4 g     F .text	0000000c _cleanup
080099f0  w    F .text	00000002 PendSV_Handler
080099f0  w    F .text	00000002 NMI_Handler
0800b3a8 g       .ARM	00000000 __exidx_end
20001074 g     O .bss	00000002 buffer_ptr
2000086e g     O .bss	00000001 SYSTEM_I2C_error_flag
08004858 g     F .text	0000011c SD_GetSCR
080099f0  w    F .text	00000002 EXTI3_IRQHandler
20005314 g     O .bss	00000004 DUMMY_PTR
20000940 g     O .bss	00000004 battary_voltage
08007f60 g     F .text	00000034 LoRa_reset
20000000 g       *ABS*	00000000 STARTRAM
0800a980 g     F .text	0000000c __errno
0800add0 g     F .text	00000002 __retarget_lock_close
08002020 g     F .text	00000034 gpio_read
08006820 g     F .text	0000001c GSM_PowerOFF
0800635c g     F .text	00000038 DS18B20_StartTempMeas
080099f0  w    F .text	00000002 LPTIM2_IRQHandler
0800869c g     F .text	0000002c TMP1075_read_id
08001be2 g     F .text	0000015e ADC_Handler
08001724 g     F .text	00000090 ADC_reset_registers
20005320 g     O .bss	00000004 errno
0800a23c g     F .text	000001e8 _scanf_i
08009cb6 g     F .text	00000004 __seofread
0800aeac g       .text	00000000 _etext
08007928 g     F .text	00000060 SX126x_SetPacketParams
080086f4 g     F .text	0000004a TMP1075_read_float_temperature
20000850 g       .bss	00000000 _sbss
08005240 g     F .text	000002b0 SD_WriteBlock
20003cb4 g     O .bss	00000004 BPB_RootClus
080099f0  w    F .text	00000002 I2C3_ER_IRQHandler
08005c4c g     F .text	00000018 GetMili
08004830 g     F .text	00000028 SD_SetBlockSize
2000093e g     O .bss	00000001 FIFO_flag
08004ce8 g     F .text	00000094 SD_SetBusWidth
20003c14 g     O .bss	00000004 global_freq
20003c18 g     O .bss	00000001 sd_last_result
200027b8 g     O .bss	00000008 current_time
08009a60 g     F .text	0000001c memcpy
08005696 g     F .text	00000092 spi_recieve8
08005ee6 g     F .text	00000038 print_arr
0800343e g     F .text	00000062 PWM_deinit
0800ab7c g     F .text	0000000c _cleanup_r
08009294 g     F .text	00000022 .hidden __floatsidf
080099f0  w    F .text	00000002 EXTI0_IRQHandler
080099f0  w    F .text	00000002 I2C2_EV_IRQHandler
08001d7c g     F .text	0000005c gpio_calculate
080099f0  w    F .text	00000002 CAN1_RX0_IRQHandler
08005660 g     F .text	00000036 spi_send8
080099f0  w    F .text	00000002 FPU_IRQHandler
08001fec g     F .text	00000034 gpio_toggle
08004da8 g     F .text	0000029c SD_GetCardInfo
08007988 g     F .text	0000006c SX126x_SetTx
080099f0  w    F .text	00000002 TIM1_UP_TIM16_IRQHandler
08000f8a g     F .text	000002ca SEND_TO_SERVER
08009a40 g     F .text	00000010 malloc
080054f0 g     F .text	000000c8 spi_init
08003ed8 g     F .text	00000088 write_single_bkp_reg
08008a5c g     F .text	00000050 TMP1075_disable_ALERT_pin
08006788 g     F .text	00000060 GSM_isAlive
080099f0  w    F .text	00000002 UsageFault_Handler
20003cbc g     O .bss	00000004 data_file_addr
0800330c g     F .text	00000020 PWM_stop_all
08008d2e g     F .text	0000002c TMP1075_get_low_limit
08008786 g     F .text	00000052 TMP1075_raw_to_float
080097dc g     F .text	00000040 .hidden __fixunsdfsi
080066e6 g     F .text	00000066 GSM_SetAPN
08009e5e g     F .text	0000003a __ssrefill_r
20000850 g       .bss	00000000 __bss_start__
0800a7b8 g     F .text	00000014 strtoul
20000000 g     O .data	00000000 .hidden __dso_handle
08007a94 g     F .text	00000030 SetRxTxFallbackMode
08009274 g     F .text	0000001e .hidden __aeabi_ui2d
08006c3c g     F .text	0000001c GSM_CheckGSM
20000000 g       .data	00000000 _sdata
080008c4 g     F .text	00000484 CMD_Parser
080099f0  w    F .text	00000002 SPI1_IRQHandler
08008ff0 g     F .text	00000000 .hidden __aeabi_drsub
08009bc8 g     F .text	00000020 _sbrk_r
080040ac g     F .text	00000144 RTC_get_time
08000e04 g     F .text	0000000e LED_BLINK
08002a74 g     F .text	0000016c I2C_Write_byte_St
080099f0  w    F .text	00000002 TIM6_DAC_IRQHandler
0800a424 g     F .text	00000024 _read_r
08003138 g     F .text	00000188 PWM_init
08006cf4 g     F .text	0000001c GSM_RequestIP
08003fd8 g     F .text	000000d4 RTC_EncodeDateTime
0800ab10 g     F .text	00000024 fflush
080041f0 g     F .text	000000a4 RTC_get_alarm
080092b8 g     F .text	00000042 .hidden __extendsfdf2
08009e98 g     F .text	000002f0 __ssvfscanf_r
080095bc g     F .text	000001d0 .hidden __aeabi_ddiv
08008ffc g     F .text	00000276 .hidden __adddf3
20003cae g     O .bss	00000001 BPB_NumFATs
080083e8 g     F .text	000000da LoRa_receive
0800b3a0 g       .ARM	00000000 __exidx_start
20005328 g     O .bss	00000001 __lock___env_recursive_mutex
08009368 g     F .text	00000254 .hidden __aeabi_dmul
2000532b g     O .bss	00000001 __lock___sinit_recursive_mutex
0800b21c g     O .rodata	00000004 _global_impure_ptr
0800ade4 g     F .text	0000004c _realloc_r
08009998 g     F .text	00000048 __libc_init_array
0800a694 g     F .text	00000014 strtol_l
08007ac4 g     F .text	00000030 SX126x_SetStandby
080099f0  w    F .text	00000002 DMA2_Channel2_IRQHandler
080099f0  w    F .text	00000002 DMA1_Channel4_IRQHandler
08002054 g     F .text	00000124 gpio_exti_init
080001d8 g     F .text	00000000 _mainCRTStartup
08005c04 g     F .text	00000030 Freeze_delay
08007582 g     F .text	000000ec SX126x_SendOpcode
08009274 g     F .text	0000001e .hidden __floatunsidf
08001624 g     F .text	0000000c ADC1_IRQHandler
0800ae70 g     F .text	0000001c _sbrk
2000c000 g       *ABS*	00000000 ENDRAM
0800ad1c g     F .text	0000001c __fp_lock_all
0800ae94 g     F .text	00000000 _init
080037ac g     F .text	00000100 RTC_auto_wakeup_enable
08007c50 g     F .text	00000080 SX126x_SetDioIrqParams
0800a6a8 g     F .text	00000014 strtol
080043a8 g     F .text	00000140 RTC_alarm_update
080064d8 g     F .text	00000060 DS18B20_ReadTemperature
0800981c g     F .text	0000009e .hidden __aeabi_d2f
080015f4 g     F .text	0000000c USART3_IRQHandler
08003ce8 g     F .text	00000150 RTC_Init
00000064 g       *ABS*	00000000 STACKSIZE
20005334 g       .bss	00000000 _ebss
08006c20 g     F .text	0000001c GSM_CheckSIM
080099f0  w    F .text	00000002 DMA1_Channel7_IRQHandler
08007830 g     F .text	00000030 SX126x_SetPacketType
20000008 g     O .data	00000060 gs1_ow_nums
080099f4  w    F .text	00000034 Reset_Handler
0800a464 g     F .text	000000b8 _reclaim_reent
0800789c g     F .text	0000003c SX126x_SetBufferBaseAddress
08007e10 g     F .text	00000040 SX126x_ClearIrqStatus
080079f4 g     F .text	000000a0 SX126x_SetRx
080099f0  w    F .text	00000002 CAN1_RX1_IRQHandler
0800978c g     F .text	0000004e .hidden __fixdfsi
08001324 g     F .text	000001c0 MakeMeasure
080028c0 g     F .text	000001b4 I2C_Write_word_u16_St
2000127c g     O .bss	00000001 gs3_buf_ptr
08002d0e g     F .text	00000044 OneWire_Read
20005329 g     O .bss	00000001 __lock___malloc_recursive_mutex
080083d0 g     F .text	00000018 LoRa_startReceiving
08002ea0 g     F .text	00000146 hasNextRom
08002cc6 g     F .text	00000048 OneWire_Reset
08008aac g     F .text	0000008e TMP1075_set_mode_ALERT_pin
08002be0 g     F .text	000000c2 OneWire_SendBit
08005df8 g     F .text	00000068 DWT_Delay_With_Action
08006be8 g     F .text	0000001c GSM_DisableEcho
08006408 g     F .text	00000092 DS18B20_Init
0800699c g     F .text	000000a4 GSM_OpenConnection
080081a4 g     F .text	0000006c LoRa_setFrequency
080067e8 g     F .text	00000038 GSM_TogglePower
08005728 g     F .text	0000003c spi_send_array
08008ffc g     F .text	00000276 .hidden __aeabi_dadd
08000000 g       *ABS*	00000000 STARTFLASH
0800766e g     F .text	0000003a SX126x_GetStatus
08006768 g     F .text	00000020 GSM_GetVBAT
080099f0  w    F .text	00000002 DMA2_Channel1_IRQHandler
20000874 g     O .bss	00000042 fifo
080092fc g     F .text	0000006a .hidden __aeabi_ul2d
08003f60 g     F .text	00000078 RTC_time_difference
08007b64 g     F .text	00000054 SX126x_GetDeviceErrors
08002d8e g     F .text	00000066 OneWire_Write
0800b340 g     O .rodata	00000020 __sf_fake_stderr
080099f0  w    F .text	00000002 QUADSPI_IRQHandler
08001ba2 g     F .text	0000002c ADC_Start
20005338 g       ._user_heap_stack	00000000 end
08007b20 g     F .text	00000044 SX126x_GetPacketType
080099f0  w    F .text	00000002 I2C1_EV_IRQHandler
20003ca8 g     O .bss	00000002 BPB_BytsPerSec
08009c40 g     F .text	00000054 _siscanf_r
0800ade2 g     F .text	00000002 __retarget_lock_release_recursive
0800887c g     F .text	00000036 TMP1075_write_config
20003cb0 g     O .bss	00000004 BPB_FATSz32
0800addc g     F .text	00000004 __retarget_lock_try_acquire_recursive
08006b9c g     F .text	0000004c GSM_WaitTCPServerConnection
0800721c g     F .text	00000128 GSM_RX_Handler
080044e8 g     F .text	000000a4 SDMMC_INIT
080099f0  w    F .text	00000002 DMA1_Channel6_IRQHandler
200000c8 g     O .data	00000060 gs3_ow_nums
080057de g     F .text	0000002e spi_request_read8
080099f0  w    F .text	00000002 DMA2_Channel4_IRQHandler
0800abf0 g     F .text	0000000c __sfp_lock_acquire
080098d0 g     F .text	00000000 memchr
08005d18 g     F .text	00000018 DWT_Get_Current_Tick
08004d7c g     F .text	0000002c SD_SetBusClock
080034a0 g     F .text	0000012c RCC_init_hse
08006394 g     F .text	00000074 DS18B20_ReadScratchpad
20005334 g       .bss	00000000 __bss_end__
080068f4 g     F .text	000000a8 GSM_SendSMS
08009a7c g     F .text	00000098 _free_r
080099f0  w    F .text	00000002 RCC_IRQHandler
080076ee g     F .text	00000032 SX126x_WriteRegisters
08005d30 g     F .text	00000034 DWT_Elapsed_Tick
0800674c g     F .text	0000001c GSM_CheckSignal
080099f0  w    F .text	00000002 TIM1_TRG_COM_IRQHandler
080099f0  w    F .text	00000002 DMA1_Channel1_IRQHandler
08009de4 g     F .text	0000007a _sungetc_r
08008ff8 g     F .text	0000027a .hidden __aeabi_dsub
08004630 g     F .text	00000130 SD_GetError
080099f0 g       .text	00000002 Default_Handler
080001d8 g     F .text	00000000 _start
080099f0  w    F .text	00000002 DMA2_Channel7_IRQHandler
08009d38 g     F .text	0000002c strstr
0800add8 g     F .text	00000004 __retarget_lock_try_acquire
080092fc g     F .text	0000006a .hidden __floatundidf
08006538 g     F .text	00000114 GSM_Init
0800ae50 g     F .text	00000010 _lseek
080086c8 g     F .text	0000002c TMP1075_read_raw_temperature
08002d52 g     F .text	0000003c OneWire_ReadArray
080099f0  w    F .text	00000002 EXTI15_10_IRQHandler
08002234 g     F .text	0000004c I2C_HandleTransfer
080001d0  w    F .text	00000000 _stack_init
08007eb0 g     F .text	0000006c SX126x_RxHandler
08005fc0 g     F .text	00000270 FAT32_init
20000948 g     O .bss	00000080 sim7000g
08004974 g     F .text	00000374 SD_Init
08006d48 g     F .text	000004d4 GSM_AnswerParser
20000a84 g     O .bss	000000dc adc
080084c2 g     F .text	00000022 LoRa_getRSSI
080087d8 g     F .text	00000034 TMP1075_raw_to_int
08006cbc g     F .text	0000001c GSM_CheckIPstatus
080057b0 g     F .text	0000002e spi_waiting_read8
08007542 g     F .text	00000040 SX126x_CalculateMode
08007f1c g     F .text	00000044 newLoRa
08008346 g     F .text	0000008a LoRa_transmit
0800a7a0 g     F .text	00000004 _strtoul_r
08003920 g     F .text	000000b8 RTC_struct_brief_time_converter
080099f0  w    F .text	00000002 TIM7_IRQHandler
080099f0  w    F .text	00000002 SDMMC1_IRQHandler
08009d88 g     F .text	00000020 _close_r
08009294 g     F .text	00000022 .hidden __aeabi_i2d
08007f94 g     F .text	000000ba LoRa_gotoMode
200008b8 g     O .bss	00000042 long_cmd_fifo
08003e38 g     F .text	000000a0 rtc_writeToBkp
080077a0 g     F .text	00000090 SX126x_SetRfFrequency
2000128c g     O .bss	00000004 handler
0800add2 g     F .text	00000002 __retarget_lock_close_recursive
080099f0  w    F .text	00000002 I2C3_EV_IRQHandler
20001280 g     O .bss	00000007 current_rtc
08009be8 g     F .text	00000058 sscanf
08001600 g     F .text	00000024 EXTI9_5_IRQHandler
080095bc g     F .text	000001d0 .hidden __divdf3
0800ac90 g     F .text	0000008c __sfp
08001630 g     F .text	0000005c RTC_WKUP_IRQHandler
08006230 g     F .text	00000100 FAT32_get_file_start_cluster
0800ac14 g     F .text	0000000c __sinit_lock_release
08009368 g     F .text	00000254 .hidden __muldf3
08009c94 g     F .text	00000022 __sread
08006d2c g     F .text	0000001c GSM_CheckMode
08009dcc g     F .text	0000000c __malloc_lock
080099f0  w    F .text	00000002 PVD_PVM_IRQHandler
0800aa98 g     F .text	00000078 _fflush_r
08005848 g     F .text	00000114 TIM_init
0800458c g     F .text	000000a4 SD_Cmd
08001bce g     F .text	00000014 ADC_Disable
080099f0  w    F .text	00000002 SPI2_IRQHandler
0800b360 g     O .rodata	00000020 __sf_fake_stdin
08006c04 g     F .text	0000001c GSM_SaveSettings
080084e4 g     F .text	000001b8 LoRa_init
0800add6 g     F .text	00000002 __retarget_lock_acquire_recursive
080099e0 g     F .text	00000010 memset
080099f0  w    F .text	00000002 MemManage_Handler
0800153c g     F .text	000000b8 main
08007e50 g     F .text	00000060 SX126x_RxDataParse
0800adce g     F .text	00000002 __retarget_lock_init_recursive
08008310 g     F .text	00000036 LoRa_setTOMsb_setCRCon
20001288 g     O .bss	00000002 WAKEUP_PERIOD_SEC
200008fc g     O .bss	00000042 sensors_data_rx_fifo
0800045c g     F .text	00000468 System_Init
080099f0  w    F .text	00000002 CAN1_TX_IRQHandler
080099f0  w    F .text	00000002 SVC_Handler
08009d16 g     F .text	00000008 __sclose
080099f0  w    F .text	00000002 DMA2_Channel5_IRQHandler
08001fa0 g     F .text	0000004c gpio_state
080099f0  w    F .text	00000002 CRS_IRQHandler
08007720 g     F .text	00000034 SX126x_WriteBuffer
0800a690 g     F .text	00000004 _strtol_r
0800981c g     F .text	0000009e .hidden __truncdfsf2
20000945 g     O .bss	00000001 TIM7_finished
080019b4 g     F .text	000001ee ADC_InitRegChannel
08008b3a g     F .text	0000008e TMP1075_ALERT_active_level
08007754 g     F .text	0000004c SX126x_ReadBuffer
08009b14 g     F .text	000000b4 _malloc_r
0800930c g     F .text	0000005a .hidden __aeabi_l2d
0800a7cc g     F .text	00000074 __submore
0800ad54 g     F .text	0000003a _fwalk
0800893e g     F .text	0000008e TMP1075_set_time_conversion
080099f0  w    F .text	00000002 DMA1_Channel5_IRQHandler
080099f0  w    F .text	00000002 EXTI4_IRQHandler
08007d2e g     F .text	0000003a SX126x_SetSyncWord
08006694 g     F .text	00000052 GSM_SendCMD
08009be8 g     F .text	00000058 siscanf
08006d10 g     F .text	0000001c GSM_SetMode
0800adcc g     F .text	00000002 __retarget_lock_init
08008d5a g     F .text	0000002c TMP1075_get_high_limit
080099f0  w    F .text	00000002 RNG_IRQHandler
0800a7a4 g     F .text	00000014 strtoul_l
0800aea0 g     F .text	00000000 _fini
08008c56 g     F .text	0000006c TMP1075_set_low_limit
0800880c g     F .text	00000044 TMP1075_float_to_binary
080032ec g     F .text	00000020 PWM_start_all
0800804e g     F .text	00000068 LoRa_readRegister
20001078 g     O .bss	00000100 gs2_buffer
08005dd8 g     F .text	00000020 DWT_Delay_ms
20000870 g     O .bss	00000004 SYSTEM_I2C_error_counter
08009d64 g     F .text	00000024 _write_r
080078d8 g     F .text	00000050 SX126x_SetModulationParams
080099f0  w    F .text	00000002 DMA1_Channel3_IRQHandler
080099f0  w    F .text	00000002 COMP_IRQHandler
0800649a g     F .text	0000003e DS18B20_ReadROM
200007e8 g     O .data	00000004 _impure_ptr
0800a98c g     F .text	0000010c __sflush_r
080050b4 g     F .text	0000018c SD_ReadBlock
20003cc0 g     O .bss	00000004 file_addr
08005d64 g     F .text	00000040 DWT_Init
08005f20 g     F .text	000000a0 stop_cortex
200009c8 g     O .bss	000000bc SX1268
08005044 g     F .text	00000024 SD_StopTransfer
080099f0  w    F .text	00000002 WWDG_IRQHandler
08005068 g     F .text	0000004c SD_GetCardState
0800ad38 g     F .text	0000001c __fp_unlock_all
080099f0  w    F .text	00000002 LPUART1_IRQHandler
080099f0  w    F .text	00000002 DMA2_Channel6_IRQHandler
080039d8 g     F .text	000000c8 RTC_struct_brief_date_converter
08005bd4 g     F .text	00000030 Delay
08002ca2 g     F .text	00000024 OneWire_ReadBit
080099f0  w    F .text	00000002 TIM2_IRQHandler
080032c0 g     F .text	0000002c PWM_start_single
08004294 g     F .text	00000114 RTC_alarm_init
080097dc g     F .text	00000040 .hidden __aeabi_d2uiz
08007dbc g     F .text	00000054 SX126x_GetPacketStatus
080055b8 g     F .text	0000001e spi_write
08009e98 g     F .text	000002f0 __ssvfiscanf_r
08002178 g     F .text	000000bc I2C_init
080017b4 g     F .text	00000200 ADC_Init
080099f0  w    F .text	00000002 EXTI1_IRQHandler
0800664c g     F .text	00000048 GSM_wait_for_answer
0800873e g     F .text	00000048 TMP1075_read_int8_temperature
00040000 g       *ABS*	00000000 LENGTHFLASH
08009c40 g     F .text	00000054 _sscanf_r
08008294 g     F .text	0000007c LoRa_setOCP
08005cd4 g     F .text	00000020 DWT_GetDelta
08003410 g     F .text	0000002e PWM_stop_single
08008210 g     F .text	0000005e LoRa_setSpreadingFactor
08005eae g     F .text	00000038 _write
2000084c g       .data	00000000 _edata
08004760 g     F .text	000000d0 SD_Response
08006ac4 g     F .text	0000001c GSM_SetDNS
08001254 g     F .text	000000d0 TemperatureSensorsMeasure
20005325 g     O .bss	00000001 __lock___at_quick_exit_mutex
08007348 g     F .text	00000178 SX126x_Init
08008122 g     F .text	00000082 LoRa_writeRegisters
08002280 g     F .text	00000040 I2C_check_flag
08008cc2 g     F .text	0000006c TMP1075_set_high_limit
0800332c g     F .text	000000e4 PWM_change_fill
20003cac g     O .bss	00000002 BPB_RsvdSecCnt
080099f0  w    F .text	00000002 USART2_IRQHandler
08009cba g     F .text	00000038 __swrite
0800826e g     F .text	00000026 LoRa_setPower
2000086c g     O .bss	00000001 uart_receive_data
08009970 g     F .text	00000028 exit
0800ad8e g     F .text	0000003e _fwalk_reent
08005608 g     F .text	00000058 spi_txrx
0800978c g     F .text	0000004e .hidden __aeabi_d2iz
080099f0  w    F .text	00000002 I2C2_ER_IRQHandler
2000117c g     O .bss	00000100 gs3_buffer
080099f0  w    F .text	00000002 DMA1_Channel2_IRQHandler
0800abfc g     F .text	0000000c __sfp_lock_release
08005998 g     F .text	00000190 UART_init
2000086d g     O .bss	00000001 SYSTEM_init_status
0800b380 g     O .rodata	00000020 __sf_fake_stdout
0800a51c g     F .text	00000070 __sccl
0800b23f g     O .rodata	00000101 _ctype_
08007af4 g     F .text	0000002c SX126x_SetSleep
0800ae60 g     F .text	00000010 _read
080030fc g     F .text	0000003a OneWire_MatchRom
0800add4 g     F .text	00000002 __retarget_lock_acquire
0800ade0 g     F .text	00000002 __retarget_lock_release
080099f0  w    F .text	00000002 CAN1_SCE_IRQHandler
08005da4 g     F .text	00000034 DWT_Delay_us
08006b50 g     F .text	0000004c GSM_WaitTCPServerAcknowledge
080076a8 g     F .text	00000046 SX126x_ReadRegisters
0000c000 g       *ABS*	00000000 LENGTHRAM
080099f0  w    F .text	00000002 FLASH_IRQHandler
0800ae8c g     F .text	00000002 _exit
08005c64 g     F .text	00000070 delay_action
080099f0  w    F .text	00000002 BusFault_Handler
080099f0  w    F .text	00000002 USART1_IRQHandler
20005327 g     O .bss	00000001 __lock___dd_hash_mutex
2000532c g     O .bss	00000001 __lock___tz_mutex
080098bc g     F .text	00000010 strlen
080099f0  w    F .text	00000002 SPI3_IRQHandler
0800aeec g     O .rodata	00000018 day_offset
080074c0 g     F .text	00000082 SX126x_SendData
08002df4 g     F .text	0000003c OneWire_WriteArray
08007cd0 g     F .text	00000030 SX126x_SetDIO2AsRfSwitchCtr
2000531c g     O .bss	00000004 __malloc_sbrk_start
08008bc8 g     F .text	0000008e TMP1075_ALERT_sensitivity
20003cb8 g     O .bss	00000004 root_dir_addr
08006330 g     F .text	0000002c FAT32_check_file_next_cluster
080099f0  w    F .text	00000002 I2C1_ER_IRQHandler
08005cf4 g     F .text	00000024 DWT_GetMicro
08009d1e g     F .text	0000001a strchr
080092b8 g     F .text	00000042 .hidden __aeabi_f2d
08001dd8 g     F .text	000001c8 gpio_init
20005318 g     O .bss	00000004 __malloc_free_list
080099f0  w    F .text	00000002 SWPMI1_IRQHandler
0800233a g     F .text	0000017a I2C_Read_byte_St_ReSt
080099f0  w    F .text	00000002 LPTIM1_IRQHandler
08008ff8 g     F .text	0000027a .hidden __subdf3
080080b6 g     F .text	0000006c LoRa_writeRegister
080035cc g     F .text	00000114 RCC_init_hsi
20000d74 g     O .bss	00000300 data_buffer
20000b60 g     O .bss	00000150 sensors
08000000 g     O .isr_vector	00000000 g_ISR_Vectors
08005b28 g     F .text	00000044 UART_tx
0800a840 g     F .text	00000130 _ungetc_r
08003aa0 g     F .text	00000074 RTC_set_date
08007bb8 g     F .text	00000098 SX126x_GetIrqStatus
08003b14 g     F .text	000001d4 RTC_data_update
20000944 g     O .bss	00000001 TIM2_finished
08008850 g     F .text	0000002c TMP1075_read_config
080038ac g     F .text	00000074 RTC_set_time
20003cc8 g     O .bss	00000200 sd_read_buf
08000d48 g     F .text	00000038 init_global_variables
080099f0  w    F .text	00000002 SAI1_IRQHandler
2000532a g     O .bss	00000001 __lock___sfp_recursive_mutex
20000068 g     O .data	00000060 gs2_ow_nums
0800ae40 g     F .text	00000010 _close
20003c1c g     O .bss	00000054 SDCard
08009a50 g     F .text	00000010 free
080022c0 g     F .text	0000007a I2C_Clear_Error_Flags
0800ac08 g     F .text	0000000c __sinit_lock_acquire
08002e30 g     F .text	00000070 OneWire_InitStruct
080099f0  w    F .text	00000002 DMA2_Channel3_IRQHandler
00000000 g       *ABS*	00000000 HEAPSIZE
080002e4 g     F .text	00000178 ReverseBytes
080099f0  w    F .text	00000002 TIM1_BRK_TIM15_IRQHandler


Contents of .stab section:

Symnum n_type n_othr n_desc n_value  n_strx String

-1     HdrSym 0      6      000000a9 1     
0      WARNING 0      0      00000000 9      _close is not implemented and will always fail
1      1      0      0      00000000 56     _close
2      WARNING 0      0      00000000 63     _lseek is not implemented and will always fail
3      1      0      0      00000000 110    _lseek
4      WARNING 0      0      00000000 117    _read is not implemented and will always fail
5      1      0      0      00000000 163    _read


Disassembly of section .isr_vector:

08000000 <g_ISR_Vectors>:
 8000000:	c000      	stmia	r0!, {}
 8000002:	2000      	movs	r0, #0
 8000004:	99f5      	ldr	r1, [sp, #980]	; 0x3d4
 8000006:	0800      	lsrs	r0, r0, #32
 8000008:	99f1      	ldr	r1, [sp, #964]	; 0x3c4
 800000a:	0800      	lsrs	r0, r0, #32
 800000c:	99f1      	ldr	r1, [sp, #964]	; 0x3c4
 800000e:	0800      	lsrs	r0, r0, #32
 8000010:	99f1      	ldr	r1, [sp, #964]	; 0x3c4
 8000012:	0800      	lsrs	r0, r0, #32
 8000014:	99f1      	ldr	r1, [sp, #964]	; 0x3c4
 8000016:	0800      	lsrs	r0, r0, #32
 8000018:	99f1      	ldr	r1, [sp, #964]	; 0x3c4
 800001a:	0800      	lsrs	r0, r0, #32
	...
 800002c:	99f1      	ldr	r1, [sp, #964]	; 0x3c4
 800002e:	0800      	lsrs	r0, r0, #32
 8000030:	99f1      	ldr	r1, [sp, #964]	; 0x3c4
 8000032:	0800      	lsrs	r0, r0, #32
 8000034:	0000      	movs	r0, r0
 8000036:	0000      	movs	r0, r0
 8000038:	99f1      	ldr	r1, [sp, #964]	; 0x3c4
 800003a:	0800      	lsrs	r0, r0, #32
 800003c:	5ba9      	ldrh	r1, [r5, r6]
 800003e:	0800      	lsrs	r0, r0, #32
 8000040:	99f1      	ldr	r1, [sp, #964]	; 0x3c4
 8000042:	0800      	lsrs	r0, r0, #32
 8000044:	99f1      	ldr	r1, [sp, #964]	; 0x3c4
 8000046:	0800      	lsrs	r0, r0, #32
 8000048:	99f1      	ldr	r1, [sp, #964]	; 0x3c4
 800004a:	0800      	lsrs	r0, r0, #32
 800004c:	1631      	asrs	r1, r6, #24
 800004e:	0800      	lsrs	r0, r0, #32
 8000050:	99f1      	ldr	r1, [sp, #964]	; 0x3c4
 8000052:	0800      	lsrs	r0, r0, #32
 8000054:	99f1      	ldr	r1, [sp, #964]	; 0x3c4
 8000056:	0800      	lsrs	r0, r0, #32
 8000058:	99f1      	ldr	r1, [sp, #964]	; 0x3c4
 800005a:	0800      	lsrs	r0, r0, #32
 800005c:	99f1      	ldr	r1, [sp, #964]	; 0x3c4
 800005e:	0800      	lsrs	r0, r0, #32
 8000060:	99f1      	ldr	r1, [sp, #964]	; 0x3c4
 8000062:	0800      	lsrs	r0, r0, #32
 8000064:	99f1      	ldr	r1, [sp, #964]	; 0x3c4
 8000066:	0800      	lsrs	r0, r0, #32
 8000068:	99f1      	ldr	r1, [sp, #964]	; 0x3c4
 800006a:	0800      	lsrs	r0, r0, #32
 800006c:	99f1      	ldr	r1, [sp, #964]	; 0x3c4
 800006e:	0800      	lsrs	r0, r0, #32
 8000070:	99f1      	ldr	r1, [sp, #964]	; 0x3c4
 8000072:	0800      	lsrs	r0, r0, #32
 8000074:	99f1      	ldr	r1, [sp, #964]	; 0x3c4
 8000076:	0800      	lsrs	r0, r0, #32
 8000078:	99f1      	ldr	r1, [sp, #964]	; 0x3c4
 800007a:	0800      	lsrs	r0, r0, #32
 800007c:	99f1      	ldr	r1, [sp, #964]	; 0x3c4
 800007e:	0800      	lsrs	r0, r0, #32
 8000080:	99f1      	ldr	r1, [sp, #964]	; 0x3c4
 8000082:	0800      	lsrs	r0, r0, #32
 8000084:	99f1      	ldr	r1, [sp, #964]	; 0x3c4
 8000086:	0800      	lsrs	r0, r0, #32
 8000088:	1625      	asrs	r5, r4, #24
 800008a:	0800      	lsrs	r0, r0, #32
 800008c:	99f1      	ldr	r1, [sp, #964]	; 0x3c4
 800008e:	0800      	lsrs	r0, r0, #32
 8000090:	99f1      	ldr	r1, [sp, #964]	; 0x3c4
 8000092:	0800      	lsrs	r0, r0, #32
 8000094:	99f1      	ldr	r1, [sp, #964]	; 0x3c4
 8000096:	0800      	lsrs	r0, r0, #32
 8000098:	99f1      	ldr	r1, [sp, #964]	; 0x3c4
 800009a:	0800      	lsrs	r0, r0, #32
 800009c:	1601      	asrs	r1, r0, #24
 800009e:	0800      	lsrs	r0, r0, #32
 80000a0:	99f1      	ldr	r1, [sp, #964]	; 0x3c4
 80000a2:	0800      	lsrs	r0, r0, #32
 80000a4:	99f1      	ldr	r1, [sp, #964]	; 0x3c4
 80000a6:	0800      	lsrs	r0, r0, #32
 80000a8:	99f1      	ldr	r1, [sp, #964]	; 0x3c4
 80000aa:	0800      	lsrs	r0, r0, #32
 80000ac:	99f1      	ldr	r1, [sp, #964]	; 0x3c4
 80000ae:	0800      	lsrs	r0, r0, #32
 80000b0:	99f1      	ldr	r1, [sp, #964]	; 0x3c4
 80000b2:	0800      	lsrs	r0, r0, #32
	...
 80000bc:	99f1      	ldr	r1, [sp, #964]	; 0x3c4
 80000be:	0800      	lsrs	r0, r0, #32
 80000c0:	99f1      	ldr	r1, [sp, #964]	; 0x3c4
 80000c2:	0800      	lsrs	r0, r0, #32
 80000c4:	99f1      	ldr	r1, [sp, #964]	; 0x3c4
 80000c6:	0800      	lsrs	r0, r0, #32
 80000c8:	99f1      	ldr	r1, [sp, #964]	; 0x3c4
 80000ca:	0800      	lsrs	r0, r0, #32
 80000cc:	99f1      	ldr	r1, [sp, #964]	; 0x3c4
 80000ce:	0800      	lsrs	r0, r0, #32
 80000d0:	99f1      	ldr	r1, [sp, #964]	; 0x3c4
 80000d2:	0800      	lsrs	r0, r0, #32
 80000d4:	99f1      	ldr	r1, [sp, #964]	; 0x3c4
 80000d6:	0800      	lsrs	r0, r0, #32
 80000d8:	99f1      	ldr	r1, [sp, #964]	; 0x3c4
 80000da:	0800      	lsrs	r0, r0, #32
 80000dc:	15f5      	asrs	r5, r6, #23
 80000de:	0800      	lsrs	r0, r0, #32
 80000e0:	99f1      	ldr	r1, [sp, #964]	; 0x3c4
 80000e2:	0800      	lsrs	r0, r0, #32
 80000e4:	168d      	asrs	r5, r1, #26
 80000e6:	0800      	lsrs	r0, r0, #32
	...
 8000104:	99f1      	ldr	r1, [sp, #964]	; 0x3c4
 8000106:	0800      	lsrs	r0, r0, #32
 8000108:	0000      	movs	r0, r0
 800010a:	0000      	movs	r0, r0
 800010c:	99f1      	ldr	r1, [sp, #964]	; 0x3c4
 800010e:	0800      	lsrs	r0, r0, #32
	...
 8000118:	99f1      	ldr	r1, [sp, #964]	; 0x3c4
 800011a:	0800      	lsrs	r0, r0, #32
 800011c:	99f1      	ldr	r1, [sp, #964]	; 0x3c4
 800011e:	0800      	lsrs	r0, r0, #32
 8000120:	99f1      	ldr	r1, [sp, #964]	; 0x3c4
 8000122:	0800      	lsrs	r0, r0, #32
 8000124:	99f1      	ldr	r1, [sp, #964]	; 0x3c4
 8000126:	0800      	lsrs	r0, r0, #32
 8000128:	99f1      	ldr	r1, [sp, #964]	; 0x3c4
 800012a:	0800      	lsrs	r0, r0, #32
 800012c:	99f1      	ldr	r1, [sp, #964]	; 0x3c4
 800012e:	0800      	lsrs	r0, r0, #32
 8000130:	99f1      	ldr	r1, [sp, #964]	; 0x3c4
 8000132:	0800      	lsrs	r0, r0, #32
	...
 8000140:	99f1      	ldr	r1, [sp, #964]	; 0x3c4
 8000142:	0800      	lsrs	r0, r0, #32
 8000144:	99f1      	ldr	r1, [sp, #964]	; 0x3c4
 8000146:	0800      	lsrs	r0, r0, #32
 8000148:	99f1      	ldr	r1, [sp, #964]	; 0x3c4
 800014a:	0800      	lsrs	r0, r0, #32
 800014c:	0000      	movs	r0, r0
 800014e:	0000      	movs	r0, r0
 8000150:	99f1      	ldr	r1, [sp, #964]	; 0x3c4
 8000152:	0800      	lsrs	r0, r0, #32
 8000154:	99f1      	ldr	r1, [sp, #964]	; 0x3c4
 8000156:	0800      	lsrs	r0, r0, #32
 8000158:	99f1      	ldr	r1, [sp, #964]	; 0x3c4
 800015a:	0800      	lsrs	r0, r0, #32
 800015c:	99f1      	ldr	r1, [sp, #964]	; 0x3c4
 800015e:	0800      	lsrs	r0, r0, #32
 8000160:	99f1      	ldr	r1, [sp, #964]	; 0x3c4
 8000162:	0800      	lsrs	r0, r0, #32
 8000164:	99f1      	ldr	r1, [sp, #964]	; 0x3c4
 8000166:	0800      	lsrs	r0, r0, #32
 8000168:	99f1      	ldr	r1, [sp, #964]	; 0x3c4
 800016a:	0800      	lsrs	r0, r0, #32
 800016c:	0000      	movs	r0, r0
 800016e:	0000      	movs	r0, r0
 8000170:	99f1      	ldr	r1, [sp, #964]	; 0x3c4
 8000172:	0800      	lsrs	r0, r0, #32
 8000174:	99f1      	ldr	r1, [sp, #964]	; 0x3c4
 8000176:	0800      	lsrs	r0, r0, #32
	...
 8000180:	99f1      	ldr	r1, [sp, #964]	; 0x3c4
 8000182:	0800      	lsrs	r0, r0, #32
 8000184:	99f1      	ldr	r1, [sp, #964]	; 0x3c4
 8000186:	0800      	lsrs	r0, r0, #32
 8000188:	99f1      	ldr	r1, [sp, #964]	; 0x3c4
 800018a:	0800      	lsrs	r0, r0, #32

Disassembly of section .text:

08000190 <__do_global_dtors_aux>:
 8000190:	       b510      	push	{r4, lr}
 8000192:	       4c05      	ldr	r4, [pc, #20]	; (80001a8 <__do_global_dtors_aux+0x18>)
 8000194:	       7823      	ldrb	r3, [r4, #0]
 8000196:	/----- b933      	cbnz	r3, 80001a6 <__do_global_dtors_aux+0x16>
 8000198:	|      4b04      	ldr	r3, [pc, #16]	; (80001ac <__do_global_dtors_aux+0x1c>)
 800019a:	|  /-- b113      	cbz	r3, 80001a2 <__do_global_dtors_aux+0x12>
 800019c:	|  |   4804      	ldr	r0, [pc, #16]	; (80001b0 <__do_global_dtors_aux+0x20>)
 800019e:	|  |   f3af 8000 	nop.w
 80001a2:	|  \-> 2301      	movs	r3, #1
 80001a4:	|      7023      	strb	r3, [r4, #0]
 80001a6:	\----> bd10      	pop	{r4, pc}
 80001a8:	       0850      	lsrs	r0, r2, #1
 80001aa:	       2000      	movs	r0, #0
 80001ac:	       0000      	movs	r0, r0
 80001ae:	       0000      	movs	r0, r0
 80001b0:	       ae90      	add	r6, sp, #576	; 0x240
 80001b2:	       0800      	lsrs	r0, r0, #32

080001b4 <frame_dummy>:
 80001b4:	    b508      	push	{r3, lr}
 80001b6:	    4b03      	ldr	r3, [pc, #12]	; (80001c4 <frame_dummy+0x10>)
 80001b8:	/-- b11b      	cbz	r3, 80001c2 <frame_dummy+0xe>
 80001ba:	|   4903      	ldr	r1, [pc, #12]	; (80001c8 <frame_dummy+0x14>)
 80001bc:	|   4803      	ldr	r0, [pc, #12]	; (80001cc <frame_dummy+0x18>)
 80001be:	|   f3af 8000 	nop.w
 80001c2:	\-> bd08      	pop	{r3, pc}
 80001c4:	    0000      	movs	r0, r0
 80001c6:	    0000      	movs	r0, r0
 80001c8:	    0854      	lsrs	r4, r2, #1
 80001ca:	    2000      	movs	r0, #0
 80001cc:	    ae90      	add	r6, sp, #576	; 0x240
 80001ce:	    0800      	lsrs	r0, r0, #32

080001d0 <_stack_init>:
 80001d0:	f5a3 3a80 	sub.w	r10, r3, #65536	; 0x10000
 80001d4:	4770      	bx	lr
 80001d6:	bf00      	nop

080001d8 <_mainCRTStartup>:
 80001d8:	    4b17      	ldr	r3, [pc, #92]	; (8000238 <_mainCRTStartup+0x60>)
 80001da:	    2b00      	cmp	r3, #0
 80001dc:	    bf08      	it	eq
 80001de:	    4b13      	ldreq	r3, [pc, #76]	; (800022c <_mainCRTStartup+0x54>)
 80001e0:	    469d      	mov	sp, r3
 80001e2:	    f7ff fff5 	bl	80001d0 <_stack_init>
 80001e6:	    2100      	movs	r1, #0
 80001e8:	    468b      	mov	r11, r1
 80001ea:	    460f      	mov	r7, r1
 80001ec:	    4813      	ldr	r0, [pc, #76]	; (800023c <_mainCRTStartup+0x64>)
 80001ee:	    4a14      	ldr	r2, [pc, #80]	; (8000240 <_mainCRTStartup+0x68>)
 80001f0:	    1a12      	subs	r2, r2, r0
 80001f2:	    f009 fbf5 	bl	80099e0 <memset>
 80001f6:	    4b0e      	ldr	r3, [pc, #56]	; (8000230 <_mainCRTStartup+0x58>)
 80001f8:	    2b00      	cmp	r3, #0
 80001fa:	/-- d000      	beq.n	80001fe <_mainCRTStartup+0x26>
 80001fc:	|   4798      	blx	r3
 80001fe:	\-> 4b0d      	ldr	r3, [pc, #52]	; (8000234 <_mainCRTStartup+0x5c>)
 8000200:	    2b00      	cmp	r3, #0
 8000202:	/-- d000      	beq.n	8000206 <_mainCRTStartup+0x2e>
 8000204:	|   4798      	blx	r3
 8000206:	\-> 2000      	movs	r0, #0
 8000208:	    2100      	movs	r1, #0
 800020a:	    0004      	movs	r4, r0
 800020c:	    000d      	movs	r5, r1
 800020e:	    480d      	ldr	r0, [pc, #52]	; (8000244 <_mainCRTStartup+0x6c>)
 8000210:	    2800      	cmp	r0, #0
 8000212:	/-- d002      	beq.n	800021a <_mainCRTStartup+0x42>
 8000214:	|   480c      	ldr	r0, [pc, #48]	; (8000248 <_mainCRTStartup+0x70>)
 8000216:	|   f3af 8000 	nop.w
 800021a:	\-> f009 fbbd 	bl	8009998 <__libc_init_array>
 800021e:	    0020      	movs	r0, r4
 8000220:	    0029      	movs	r1, r5
 8000222:	    f001 f98b 	bl	800153c <main>
 8000226:	    f009 fba3 	bl	8009970 <exit>
 800022a:	    bf00      	nop
 800022c:	    0000      	movs	r0, r0
 800022e:	    0008      	movs	r0, r1
	...
 800023c:	    0850      	lsrs	r0, r2, #1
 800023e:	    2000      	movs	r0, #0
 8000240:	    5334      	strh	r4, [r6, r4]
 8000242:	    2000      	movs	r0, #0
	...

0800024c <__NVIC_SetPriority>:
  \param [in]      IRQn  Interrupt number.
  \param [in]  priority  Priority to set.
  \note    The priority cannot be set for every processor exception.
 */
__STATIC_INLINE void __NVIC_SetPriority(IRQn_Type IRQn, uint32_t priority)
{
 800024c:	       b480      	push	{r7}
 800024e:	       b083      	sub	sp, #12
 8000250:	       af00      	add	r7, sp, #0
 8000252:	       4603      	mov	r3, r0
 8000254:	       6039      	str	r1, [r7, #0]
 8000256:	       71fb      	strb	r3, [r7, #7]
  if ((int32_t)(IRQn) >= 0)
 8000258:	       f997 3007 	ldrsb.w	r3, [r7, #7]
 800025c:	       2b00      	cmp	r3, #0
 800025e:	   /-- db0a      	blt.n	8000276 <__NVIC_SetPriority+0x2a>
  {
    NVIC->IP[((uint32_t)IRQn)]               = (uint8_t)((priority << (8U - __NVIC_PRIO_BITS)) & (uint32_t)0xFFUL);
 8000260:	   |   683b      	ldr	r3, [r7, #0]
 8000262:	   |   b2da      	uxtb	r2, r3
 8000264:	   |   490c      	ldr	r1, [pc, #48]	; (8000298 <__NVIC_SetPriority+0x4c>)
 8000266:	   |   f997 3007 	ldrsb.w	r3, [r7, #7]
 800026a:	   |   0112      	lsls	r2, r2, #4
 800026c:	   |   b2d2      	uxtb	r2, r2
 800026e:	   |   440b      	add	r3, r1
 8000270:	   |   f883 2300 	strb.w	r2, [r3, #768]	; 0x300
  }
  else
  {
    SCB->SHP[(((uint32_t)IRQn) & 0xFUL)-4UL] = (uint8_t)((priority << (8U - __NVIC_PRIO_BITS)) & (uint32_t)0xFFUL);
  }
}
 8000274:	/--|-- e00a      	b.n	800028c <__NVIC_SetPriority+0x40>
    SCB->SHP[(((uint32_t)IRQn) & 0xFUL)-4UL] = (uint8_t)((priority << (8U - __NVIC_PRIO_BITS)) & (uint32_t)0xFFUL);
 8000276:	|  \-> 683b      	ldr	r3, [r7, #0]
 8000278:	|      b2da      	uxtb	r2, r3
 800027a:	|      4908      	ldr	r1, [pc, #32]	; (800029c <__NVIC_SetPriority+0x50>)
 800027c:	|      79fb      	ldrb	r3, [r7, #7]
 800027e:	|      f003 030f 	and.w	r3, r3, #15
 8000282:	|      3b04      	subs	r3, #4
 8000284:	|      0112      	lsls	r2, r2, #4
 8000286:	|      b2d2      	uxtb	r2, r2
 8000288:	|      440b      	add	r3, r1
 800028a:	|      761a      	strb	r2, [r3, #24]
}
 800028c:	\----> bf00      	nop
 800028e:	       370c      	adds	r7, #12
 8000290:	       46bd      	mov	sp, r7
 8000292:	       f85d 7b04 	ldr.w	r7, [sp], #4
 8000296:	       4770      	bx	lr
 8000298:	       e100      	b.n	800049c <System_Init+0x40>
 800029a:	   /-- e000      	b.n	800029e <__NVIC_SetPriority+0x52>
 800029c:	   |   ed00 e000 	stc	0, cr14, [r0, #-0]

080002a0 <SysTick_Config>:
  \note    When the variable <b>__Vendor_SysTickConfig</b> is set to 1, then the
           function <b>SysTick_Config</b> is not included. In this case, the file <b><i>device</i>.h</b>
           must contain a vendor-specific implementation of this function.
 */
__STATIC_INLINE uint32_t SysTick_Config(uint32_t ticks)
{
 80002a0:	       b580      	push	{r7, lr}
 80002a2:	       b082      	sub	sp, #8
 80002a4:	       af00      	add	r7, sp, #0
 80002a6:	       6078      	str	r0, [r7, #4]
  if ((ticks - 1UL) > SysTick_LOAD_RELOAD_Msk)
 80002a8:	       687b      	ldr	r3, [r7, #4]
 80002aa:	       3b01      	subs	r3, #1
 80002ac:	       f1b3 7f80 	cmp.w	r3, #16777216	; 0x1000000
 80002b0:	   /-- d301      	bcc.n	80002b6 <SysTick_Config+0x16>
  {
    return (1UL);                                                   /* Reload value impossible */
 80002b2:	   |   2301      	movs	r3, #1
 80002b4:	/--|-- e00f      	b.n	80002d6 <SysTick_Config+0x36>
  }

  SysTick->LOAD  = (uint32_t)(ticks - 1UL);                         /* set reload register */
 80002b6:	|  \-> 4a0a      	ldr	r2, [pc, #40]	; (80002e0 <SysTick_Config+0x40>)
 80002b8:	|      687b      	ldr	r3, [r7, #4]
 80002ba:	|      3b01      	subs	r3, #1
 80002bc:	|      6053      	str	r3, [r2, #4]
  NVIC_SetPriority (SysTick_IRQn, (1UL << __NVIC_PRIO_BITS) - 1UL); /* set Priority for Systick Interrupt */
 80002be:	|      210f      	movs	r1, #15
 80002c0:	|      f04f 30ff 	mov.w	r0, #4294967295
 80002c4:	|      f7ff ffc2 	bl	800024c <__NVIC_SetPriority>
  SysTick->VAL   = 0UL;                                             /* Load the SysTick Counter Value */
 80002c8:	|      4b05      	ldr	r3, [pc, #20]	; (80002e0 <SysTick_Config+0x40>)
 80002ca:	|      2200      	movs	r2, #0
 80002cc:	|      609a      	str	r2, [r3, #8]
  SysTick->CTRL  = SysTick_CTRL_CLKSOURCE_Msk |
 80002ce:	|      4b04      	ldr	r3, [pc, #16]	; (80002e0 <SysTick_Config+0x40>)
 80002d0:	|      2207      	movs	r2, #7
 80002d2:	|      601a      	str	r2, [r3, #0]
                   SysTick_CTRL_TICKINT_Msk   |
                   SysTick_CTRL_ENABLE_Msk;                         /* Enable SysTick IRQ and SysTick Timer */
  return (0UL);                                                     /* Function successful */
 80002d4:	|      2300      	movs	r3, #0
}
 80002d6:	\----> 4618      	mov	r0, r3
 80002d8:	       3708      	adds	r7, #8
 80002da:	       46bd      	mov	sp, r7
 80002dc:	       bd80      	pop	{r7, pc}
 80002de:	       bf00      	nop
 80002e0:	       e010      	b.n	8000304 <ReverseBytes+0x20>
 80002e2:	       e000      	b.n	80002e6 <ReverseBytes+0x2>

080002e4 <ReverseBytes>:
6)  0x28ff6402f92f9af4 - 12

*/

uint64_t ReverseBytes(uint64_t value)
{
 80002e4:	e92d 0fb0 	stmdb	sp!, {r4, r5, r7, r8, r9, r10, r11}
 80002e8:	b099      	sub	sp, #100	; 0x64
 80002ea:	af00      	add	r7, sp, #0
 80002ec:	e9c7 0116 	strd	r0, r1, [r7, #88]	; 0x58
  return (value & 0x00000000000000FFUL) << 56 | (value & 0x000000000000FF00UL) << 40 |
 80002f0:	e9d7 2316 	ldrd	r2, r3, [r7, #88]	; 0x58
 80002f4:	f04f 0800 	mov.w	r8, #0
 80002f8:	f04f 0900 	mov.w	r9, #0
 80002fc:	ea4f 6902 	mov.w	r9, r2, lsl #24
 8000300:	f04f 0800 	mov.w	r8, #0
 8000304:	e9d7 2316 	ldrd	r2, r3, [r7, #88]	; 0x58
 8000308:	f04f 0000 	mov.w	r0, #0
 800030c:	f04f 0100 	mov.w	r1, #0
 8000310:	0211      	lsls	r1, r2, #8
 8000312:	2000      	movs	r0, #0
 8000314:	2400      	movs	r4, #0
 8000316:	f401 057f 	and.w	r5, r1, #16711680	; 0xff0000
 800031a:	ea48 0304 	orr.w	r3, r8, r4
 800031e:	653b      	str	r3, [r7, #80]	; 0x50
 8000320:	ea49 0305 	orr.w	r3, r9, r5
 8000324:	657b      	str	r3, [r7, #84]	; 0x54
         (value & 0x0000000000FF0000UL) << 24 | (value & 0x00000000FF000000UL) << 8 |
 8000326:	e9d7 2316 	ldrd	r2, r3, [r7, #88]	; 0x58
 800032a:	f04f 0000 	mov.w	r0, #0
 800032e:	f04f 0100 	mov.w	r1, #0
 8000332:	0619      	lsls	r1, r3, #24
 8000334:	ea41 2112 	orr.w	r1, r1, r2, lsr #8
 8000338:	0610      	lsls	r0, r2, #24
 800033a:	f04f 0a00 	mov.w	r10, #0
 800033e:	f401 4b7f 	and.w	r11, r1, #65280	; 0xff00
  return (value & 0x00000000000000FFUL) << 56 | (value & 0x000000000000FF00UL) << 40 |
 8000342:	e9d7 1214 	ldrd	r1, r2, [r7, #80]	; 0x50
 8000346:	460b      	mov	r3, r1
 8000348:	ea43 030a 	orr.w	r3, r3, r10
 800034c:	64bb      	str	r3, [r7, #72]	; 0x48
 800034e:	4613      	mov	r3, r2
 8000350:	ea43 030b 	orr.w	r3, r3, r11
 8000354:	64fb      	str	r3, [r7, #76]	; 0x4c
         (value & 0x0000000000FF0000UL) << 24 | (value & 0x00000000FF000000UL) << 8 |
 8000356:	e9d7 2316 	ldrd	r2, r3, [r7, #88]	; 0x58
 800035a:	f04f 0000 	mov.w	r0, #0
 800035e:	f04f 0100 	mov.w	r1, #0
 8000362:	0219      	lsls	r1, r3, #8
 8000364:	ea41 6112 	orr.w	r1, r1, r2, lsr #24
 8000368:	0210      	lsls	r0, r2, #8
 800036a:	2300      	movs	r3, #0
 800036c:	643b      	str	r3, [r7, #64]	; 0x40
 800036e:	f001 03ff 	and.w	r3, r1, #255	; 0xff
 8000372:	647b      	str	r3, [r7, #68]	; 0x44
 8000374:	e9d7 4512 	ldrd	r4, r5, [r7, #72]	; 0x48
 8000378:	4623      	mov	r3, r4
 800037a:	e9d7 0110 	ldrd	r0, r1, [r7, #64]	; 0x40
 800037e:	4602      	mov	r2, r0
 8000380:	4313      	orrs	r3, r2
 8000382:	63bb      	str	r3, [r7, #56]	; 0x38
 8000384:	462b      	mov	r3, r5
 8000386:	460a      	mov	r2, r1
 8000388:	4313      	orrs	r3, r2
 800038a:	63fb      	str	r3, [r7, #60]	; 0x3c
         (value & 0x000000FF00000000UL) >> 8 | (value & 0x0000FF0000000000UL) >> 24 |
 800038c:	e9d7 2316 	ldrd	r2, r3, [r7, #88]	; 0x58
 8000390:	f04f 0000 	mov.w	r0, #0
 8000394:	f04f 0100 	mov.w	r1, #0
 8000398:	0a10      	lsrs	r0, r2, #8
 800039a:	ea40 6003 	orr.w	r0, r0, r3, lsl #24
 800039e:	0a19      	lsrs	r1, r3, #8
 80003a0:	f000 437f 	and.w	r3, r0, #4278190080	; 0xff000000
 80003a4:	633b      	str	r3, [r7, #48]	; 0x30
 80003a6:	2300      	movs	r3, #0
 80003a8:	637b      	str	r3, [r7, #52]	; 0x34
         (value & 0x0000000000FF0000UL) << 24 | (value & 0x00000000FF000000UL) << 8 |
 80003aa:	e9d7 450e 	ldrd	r4, r5, [r7, #56]	; 0x38
 80003ae:	4623      	mov	r3, r4
 80003b0:	e9d7 010c 	ldrd	r0, r1, [r7, #48]	; 0x30
 80003b4:	4602      	mov	r2, r0
 80003b6:	4313      	orrs	r3, r2
 80003b8:	62bb      	str	r3, [r7, #40]	; 0x28
 80003ba:	462b      	mov	r3, r5
 80003bc:	460a      	mov	r2, r1
 80003be:	4313      	orrs	r3, r2
 80003c0:	62fb      	str	r3, [r7, #44]	; 0x2c
         (value & 0x000000FF00000000UL) >> 8 | (value & 0x0000FF0000000000UL) >> 24 |
 80003c2:	e9d7 2316 	ldrd	r2, r3, [r7, #88]	; 0x58
 80003c6:	f04f 0000 	mov.w	r0, #0
 80003ca:	f04f 0100 	mov.w	r1, #0
 80003ce:	0e10      	lsrs	r0, r2, #24
 80003d0:	ea40 2003 	orr.w	r0, r0, r3, lsl #8
 80003d4:	0e19      	lsrs	r1, r3, #24
 80003d6:	f400 037f 	and.w	r3, r0, #16711680	; 0xff0000
 80003da:	623b      	str	r3, [r7, #32]
 80003dc:	2300      	movs	r3, #0
 80003de:	627b      	str	r3, [r7, #36]	; 0x24
 80003e0:	e9d7 450a 	ldrd	r4, r5, [r7, #40]	; 0x28
 80003e4:	4623      	mov	r3, r4
 80003e6:	e9d7 0108 	ldrd	r0, r1, [r7, #32]
 80003ea:	4602      	mov	r2, r0
 80003ec:	4313      	orrs	r3, r2
 80003ee:	61bb      	str	r3, [r7, #24]
 80003f0:	462b      	mov	r3, r5
 80003f2:	460a      	mov	r2, r1
 80003f4:	4313      	orrs	r3, r2
 80003f6:	61fb      	str	r3, [r7, #28]
         (value & 0x00FF000000000000UL) >> 40 | (value & 0xFF00000000000000UL) >> 56;
 80003f8:	e9d7 0116 	ldrd	r0, r1, [r7, #88]	; 0x58
 80003fc:	f04f 0200 	mov.w	r2, #0
 8000400:	f04f 0300 	mov.w	r3, #0
 8000404:	0a0a      	lsrs	r2, r1, #8
 8000406:	2300      	movs	r3, #0
 8000408:	f402 437f 	and.w	r3, r2, #65280	; 0xff00
 800040c:	613b      	str	r3, [r7, #16]
 800040e:	2300      	movs	r3, #0
 8000410:	617b      	str	r3, [r7, #20]
         (value & 0x000000FF00000000UL) >> 8 | (value & 0x0000FF0000000000UL) >> 24 |
 8000412:	e9d7 4506 	ldrd	r4, r5, [r7, #24]
 8000416:	4623      	mov	r3, r4
 8000418:	e9d7 0104 	ldrd	r0, r1, [r7, #16]
 800041c:	4602      	mov	r2, r0
 800041e:	4313      	orrs	r3, r2
 8000420:	60bb      	str	r3, [r7, #8]
 8000422:	462b      	mov	r3, r5
 8000424:	460a      	mov	r2, r1
 8000426:	4313      	orrs	r3, r2
 8000428:	60fb      	str	r3, [r7, #12]
         (value & 0x00FF000000000000UL) >> 40 | (value & 0xFF00000000000000UL) >> 56;
 800042a:	e9d7 0116 	ldrd	r0, r1, [r7, #88]	; 0x58
 800042e:	f04f 0200 	mov.w	r2, #0
 8000432:	f04f 0300 	mov.w	r3, #0
 8000436:	0e0a      	lsrs	r2, r1, #24
 8000438:	2300      	movs	r3, #0
 800043a:	e9d7 4502 	ldrd	r4, r5, [r7, #8]
 800043e:	4621      	mov	r1, r4
 8000440:	4311      	orrs	r1, r2
 8000442:	6039      	str	r1, [r7, #0]
 8000444:	4629      	mov	r1, r5
 8000446:	4319      	orrs	r1, r3
 8000448:	6079      	str	r1, [r7, #4]
 800044a:	e9d7 2300 	ldrd	r2, r3, [r7]
}
 800044e:	4610      	mov	r0, r2
 8000450:	4619      	mov	r1, r3
 8000452:	3764      	adds	r7, #100	; 0x64
 8000454:	46bd      	mov	sp, r7
 8000456:	e8bd 0fb0 	ldmia.w	sp!, {r4, r5, r7, r8, r9, r10, r11}
 800045a:	4770      	bx	lr

0800045c <System_Init>:

void System_Init(){
 800045c:	          b580      	push	{r7, lr}
 800045e:	          f5ad 7d3c 	sub.w	sp, sp, #752	; 0x2f0
 8000462:	          af02      	add	r7, sp, #8
    SysTick_Config(millisec);
 8000464:	          f640 709f 	movw	r0, #3999	; 0xf9f
 8000468:	          f7ff ff1a 	bl	80002a0 <SysTick_Config>
    gpio_init(LED, General_output, Push_pull, no_pull, Low_speed);
 800046c:	          2300      	movs	r3, #0
 800046e:	          9300      	str	r3, [sp, #0]
 8000470:	          2300      	movs	r3, #0
 8000472:	          2200      	movs	r2, #0
 8000474:	          2101      	movs	r1, #1
 8000476:	          200a      	movs	r0, #10
 8000478:	          f001 fcae 	bl	8001dd8 <gpio_init>
    gpio_init(SOIL_SENSOR_PWR_EN, General_output, Push_pull, no_pull, Low_speed);
 800047c:	          2300      	movs	r3, #0
 800047e:	          9300      	str	r3, [sp, #0]
 8000480:	          2300      	movs	r3, #0
 8000482:	          2200      	movs	r2, #0
 8000484:	          2101      	movs	r1, #1
 8000486:	          2009      	movs	r0, #9
 8000488:	          f001 fca6 	bl	8001dd8 <gpio_init>
    gpio_init(TEMP_SENSOR_PWR_EN, General_output, Push_pull, no_pull, Low_speed);
 800048c:	          2300      	movs	r3, #0
 800048e:	          9300      	str	r3, [sp, #0]
 8000490:	          2300      	movs	r3, #0
 8000492:	          2200      	movs	r2, #0
 8000494:	          2101      	movs	r1, #1
 8000496:	          2028      	movs	r0, #40	; 0x28
 8000498:	          f001 fc9e 	bl	8001dd8 <gpio_init>

    gpio_state(TEMP_SENSOR_PWR_EN, HIGH);
 800049c:	          2101      	movs	r1, #1
 800049e:	          2028      	movs	r0, #40	; 0x28
 80004a0:	          f001 fd7e 	bl	8001fa0 <gpio_state>
    gpio_state(SOIL_SENSOR_PWR_EN, HIGH);
 80004a4:	          2101      	movs	r1, #1
 80004a6:	          2009      	movs	r0, #9
 80004a8:	          f001 fd7a 	bl	8001fa0 <gpio_state>

    gpio_init(UART2_TX, PA2_USART2_TX, Push_pull, pull_up, High_speed);
 80004ac:	          2302      	movs	r3, #2
 80004ae:	          9300      	str	r3, [sp, #0]
 80004b0:	          2301      	movs	r3, #1
 80004b2:	          2200      	movs	r2, #0
 80004b4:	          210b      	movs	r1, #11
 80004b6:	          2003      	movs	r0, #3
 80004b8:	          f001 fc8e 	bl	8001dd8 <gpio_init>

    ow = (OneWire){.uart=USART2};
 80004bc:	          4bb0      	ldr	r3, [pc, #704]	; (8000780 <System_Init+0x324>)
 80004be:	          4618      	mov	r0, r3
 80004c0:	          23c4      	movs	r3, #196	; 0xc4
 80004c2:	          461a      	mov	r2, r3
 80004c4:	          2100      	movs	r1, #0
 80004c6:	          f009 fa8b 	bl	80099e0 <memset>
 80004ca:	          4bad      	ldr	r3, [pc, #692]	; (8000780 <System_Init+0x324>)
 80004cc:	          4aad      	ldr	r2, [pc, #692]	; (8000784 <System_Init+0x328>)
 80004ce:	          601a      	str	r2, [r3, #0]
    for(uint8_t i = 0; i < 12; i++){
 80004d0:	          2300      	movs	r3, #0
 80004d2:	          f887 32e7 	strb.w	r3, [r7, #743]	; 0x2e7
 80004d6:	      /-- e01f      	b.n	8000518 <System_Init+0xbc>
        sensors[i] = (DS18B20){0};
 80004d8:	   /--|-> f897 22e7 	ldrb.w	r2, [r7, #743]	; 0x2e7
 80004dc:	   |  |   49aa      	ldr	r1, [pc, #680]	; (8000788 <System_Init+0x32c>)
 80004de:	   |  |   4613      	mov	r3, r2
 80004e0:	   |  |   00db      	lsls	r3, r3, #3
 80004e2:	   |  |   1a9b      	subs	r3, r3, r2
 80004e4:	   |  |   009b      	lsls	r3, r3, #2
 80004e6:	   |  |   440b      	add	r3, r1
 80004e8:	   |  |   461a      	mov	r2, r3
 80004ea:	   |  |   2300      	movs	r3, #0
 80004ec:	   |  |   6013      	str	r3, [r2, #0]
 80004ee:	   |  |   6053      	str	r3, [r2, #4]
 80004f0:	   |  |   6093      	str	r3, [r2, #8]
 80004f2:	   |  |   60d3      	str	r3, [r2, #12]
 80004f4:	   |  |   6113      	str	r3, [r2, #16]
 80004f6:	   |  |   6153      	str	r3, [r2, #20]
 80004f8:	   |  |   6193      	str	r3, [r2, #24]
        sensors[i].ow = &ow;
 80004fa:	   |  |   f897 22e7 	ldrb.w	r2, [r7, #743]	; 0x2e7
 80004fe:	   |  |   49a2      	ldr	r1, [pc, #648]	; (8000788 <System_Init+0x32c>)
 8000500:	   |  |   4613      	mov	r3, r2
 8000502:	   |  |   00db      	lsls	r3, r3, #3
 8000504:	   |  |   1a9b      	subs	r3, r3, r2
 8000506:	   |  |   009b      	lsls	r3, r3, #2
 8000508:	   |  |   440b      	add	r3, r1
 800050a:	   |  |   4a9d      	ldr	r2, [pc, #628]	; (8000780 <System_Init+0x324>)
 800050c:	   |  |   601a      	str	r2, [r3, #0]
    for(uint8_t i = 0; i < 12; i++){
 800050e:	   |  |   f897 32e7 	ldrb.w	r3, [r7, #743]	; 0x2e7
 8000512:	   |  |   3301      	adds	r3, #1
 8000514:	   |  |   f887 32e7 	strb.w	r3, [r7, #743]	; 0x2e7
 8000518:	   |  \-> f897 32e7 	ldrb.w	r3, [r7, #743]	; 0x2e7
 800051c:	   |      2b0b      	cmp	r3, #11
 800051e:	   \----- d9db      	bls.n	80004d8 <System_Init+0x7c>
    }

    TemperatureSensorsMeasure();
 8000520:	          f000 fe98 	bl	8001254 <TemperatureSensorsMeasure>
    // GSM_SetPowerState(&sim7000g, LOW);
    // NVIC_SystemReset();
    // GSM_SendSMS(&sim7000g, "Test_GSM_module", "+79994643543");
    adc = (ADC){
 8000524:	          4b99      	ldr	r3, [pc, #612]	; (800078c <System_Init+0x330>)
 8000526:	          4618      	mov	r0, r3
 8000528:	          23dc      	movs	r3, #220	; 0xdc
 800052a:	          461a      	mov	r2, r3
 800052c:	          2100      	movs	r1, #0
 800052e:	          f009 fa57 	bl	80099e0 <memset>
 8000532:	          4b96      	ldr	r3, [pc, #600]	; (800078c <System_Init+0x330>)
 8000534:	          4a96      	ldr	r2, [pc, #600]	; (8000790 <System_Init+0x334>)
 8000536:	          601a      	str	r2, [r3, #0]
 8000538:	          4b94      	ldr	r3, [pc, #592]	; (800078c <System_Init+0x330>)
 800053a:	          2201      	movs	r2, #1
 800053c:	          f883 20c4 	strb.w	r2, [r3, #196]	; 0xc4
 8000540:	          4b92      	ldr	r3, [pc, #584]	; (800078c <System_Init+0x330>)
 8000542:	          2205      	movs	r2, #5
 8000544:	          f883 20cb 	strb.w	r2, [r3, #203]	; 0xcb
        .resolution = ADC_12bit,
        .mode = ADC_SINGLE_MODE,
        .trigger.polarity = ADC_Software_trigger,
        .ovrsmpl_ratio = OVRSMPL_32x
    };
    ADC_Init(&adc);
 8000548:	          4890      	ldr	r0, [pc, #576]	; (800078c <System_Init+0x330>)
 800054a:	          f001 f933 	bl	80017b4 <ADC_Init>
    ADC_InitRegChannel(&adc, CH12, PA7, SMP_92);
 800054e:	          2305      	movs	r3, #5
 8000550:	          2208      	movs	r2, #8
 8000552:	          210d      	movs	r1, #13
 8000554:	          488d      	ldr	r0, [pc, #564]	; (800078c <System_Init+0x330>)
 8000556:	          f001 fa2d 	bl	80019b4 <ADC_InitRegChannel>
    ADC_InitRegChannel(&adc, CH8, PA3, SMP_92);
 800055a:	          2305      	movs	r3, #5
 800055c:	          2204      	movs	r2, #4
 800055e:	          2109      	movs	r1, #9
 8000560:	          488a      	ldr	r0, [pc, #552]	; (800078c <System_Init+0x330>)
 8000562:	          f001 fa27 	bl	80019b4 <ADC_InitRegChannel>
    ADC_InitRegChannel(&adc, CH13, PC4, SMP_92);
 8000566:	          2305      	movs	r3, #5
 8000568:	          2225      	movs	r2, #37	; 0x25
 800056a:	          210e      	movs	r1, #14
 800056c:	          4887      	ldr	r0, [pc, #540]	; (800078c <System_Init+0x330>)
 800056e:	          f001 fa21 	bl	80019b4 <ADC_InitRegChannel>
    ADC_InitRegChannel(&adc, CH15, PB0, SMP_92);
 8000572:	          2305      	movs	r3, #5
 8000574:	          2211      	movs	r2, #17
 8000576:	          2110      	movs	r1, #16
 8000578:	          4884      	ldr	r0, [pc, #528]	; (800078c <System_Init+0x330>)
 800057a:	          f001 fa1b 	bl	80019b4 <ADC_InitRegChannel>
    ADC_InitRegChannel(&adc, CH14, PC5, SMP_92);
 800057e:	          2305      	movs	r3, #5
 8000580:	          2226      	movs	r2, #38	; 0x26
 8000582:	          210f      	movs	r1, #15
 8000584:	          4881      	ldr	r0, [pc, #516]	; (800078c <System_Init+0x330>)
 8000586:	          f001 fa15 	bl	80019b4 <ADC_InitRegChannel>
    ADC_InitRegChannel(&adc, CH9, PA4, SMP_92);
 800058a:	          2305      	movs	r3, #5
 800058c:	          2205      	movs	r2, #5
 800058e:	          210a      	movs	r1, #10
 8000590:	          487e      	ldr	r0, [pc, #504]	; (800078c <System_Init+0x330>)
 8000592:	          f001 fa0f 	bl	80019b4 <ADC_InitRegChannel>
    ADC_InitRegChannel(&adc, CH10, PA5, SMP_92);
 8000596:	          2305      	movs	r3, #5
 8000598:	          2206      	movs	r2, #6
 800059a:	          210b      	movs	r1, #11
 800059c:	          487b      	ldr	r0, [pc, #492]	; (800078c <System_Init+0x330>)
 800059e:	          f001 fa09 	bl	80019b4 <ADC_InitRegChannel>
    ADC_InitRegChannel(&adc, CH6, PA1, SMP_92);
 80005a2:	          2305      	movs	r3, #5
 80005a4:	          2202      	movs	r2, #2
 80005a6:	          2107      	movs	r1, #7
 80005a8:	          4878      	ldr	r0, [pc, #480]	; (800078c <System_Init+0x330>)
 80005aa:	          f001 fa03 	bl	80019b4 <ADC_InitRegChannel>
    ADC_InitRegChannel(&adc, CH4, PC3, SMP_92);
 80005ae:	          2305      	movs	r3, #5
 80005b0:	          2224      	movs	r2, #36	; 0x24
 80005b2:	          2105      	movs	r1, #5
 80005b4:	          4875      	ldr	r0, [pc, #468]	; (800078c <System_Init+0x330>)
 80005b6:	          f001 f9fd 	bl	80019b4 <ADC_InitRegChannel>
    ADC_InitRegChannel(&adc, CH2, PC1, SMP_92);
 80005ba:	          2305      	movs	r3, #5
 80005bc:	          2222      	movs	r2, #34	; 0x22
 80005be:	          2103      	movs	r1, #3
 80005c0:	          4872      	ldr	r0, [pc, #456]	; (800078c <System_Init+0x330>)
 80005c2:	          f001 f9f7 	bl	80019b4 <ADC_InitRegChannel>
    ADC_InitRegChannel(&adc, CH5, PA0, SMP_92);
 80005c6:	          2305      	movs	r3, #5
 80005c8:	          2201      	movs	r2, #1
 80005ca:	          2106      	movs	r1, #6
 80005cc:	          486f      	ldr	r0, [pc, #444]	; (800078c <System_Init+0x330>)
 80005ce:	          f001 f9f1 	bl	80019b4 <ADC_InitRegChannel>
    ADC_InitRegChannel(&adc, VREF, uninitialized, SMP_92);
 80005d2:	          2305      	movs	r3, #5
 80005d4:	          2200      	movs	r2, #0
 80005d6:	          2101      	movs	r1, #1
 80005d8:	          486c      	ldr	r0, [pc, #432]	; (800078c <System_Init+0x330>)
 80005da:	          f001 f9eb 	bl	80019b4 <ADC_InitRegChannel>
    adc.ADCx->CR |= ADC_CR_ADEN;
 80005de:	          4b6b      	ldr	r3, [pc, #428]	; (800078c <System_Init+0x330>)
 80005e0:	          681b      	ldr	r3, [r3, #0]
 80005e2:	          689a      	ldr	r2, [r3, #8]
 80005e4:	          4b69      	ldr	r3, [pc, #420]	; (800078c <System_Init+0x330>)
 80005e6:	          681b      	ldr	r3, [r3, #0]
 80005e8:	          f042 0201 	orr.w	r2, r2, #1
 80005ec:	          609a      	str	r2, [r3, #8]
    while(!(ADC1->ISR & ADC_ISR_ADRDY));
 80005ee:	          bf00      	nop
 80005f0:	      /-> 4b67      	ldr	r3, [pc, #412]	; (8000790 <System_Init+0x334>)
 80005f2:	      |   681b      	ldr	r3, [r3, #0]
 80005f4:	      |   f003 0301 	and.w	r3, r3, #1
 80005f8:	      |   2b00      	cmp	r3, #0
 80005fa:	      \-- d0f9      	beq.n	80005f0 <System_Init+0x194>
    adc.ADCx->ISR |= ADC_ISR_ADRDY;
 80005fc:	          4b63      	ldr	r3, [pc, #396]	; (800078c <System_Init+0x330>)
 80005fe:	          681b      	ldr	r3, [r3, #0]
 8000600:	          681a      	ldr	r2, [r3, #0]
 8000602:	          4b62      	ldr	r3, [pc, #392]	; (800078c <System_Init+0x330>)
 8000604:	          681b      	ldr	r3, [r3, #0]
 8000606:	          f042 0201 	orr.w	r2, r2, #1
 800060a:	          601a      	str	r2, [r3, #0]
    ADC_Start(&adc);
 800060c:	          485f      	ldr	r0, [pc, #380]	; (800078c <System_Init+0x330>)
 800060e:	          f001 fac8 	bl	8001ba2 <ADC_Start>
    while(adc.measure_process);
 8000612:	          bf00      	nop
 8000614:	      /-> 4b5d      	ldr	r3, [pc, #372]	; (800078c <System_Init+0x330>)
 8000616:	      |   f893 30d8 	ldrb.w	r3, [r3, #216]	; 0xd8
 800061a:	      |   2b00      	cmp	r3, #0
 800061c:	      \-- d1fa      	bne.n	8000614 <System_Init+0x1b8>
    gpio_state(TEMP_SENSOR_PWR_EN, LOW);
 800061e:	          2100      	movs	r1, #0
 8000620:	          2028      	movs	r0, #40	; 0x28
 8000622:	          f001 fcbd 	bl	8001fa0 <gpio_state>
    gpio_state(SOIL_SENSOR_PWR_EN, LOW);
 8000626:	          2100      	movs	r1, #0
 8000628:	          2009      	movs	r0, #9
 800062a:	          f001 fcb9 	bl	8001fa0 <gpio_state>


    SX1268 = (SX126x){
 800062e:	          4b59      	ldr	r3, [pc, #356]	; (8000794 <System_Init+0x338>)
 8000630:	          4618      	mov	r0, r3
 8000632:	          23bc      	movs	r3, #188	; 0xbc
 8000634:	          461a      	mov	r2, r3
 8000636:	          2100      	movs	r1, #0
 8000638:	          f009 f9d2 	bl	80099e0 <memset>
 800063c:	          4b55      	ldr	r3, [pc, #340]	; (8000794 <System_Init+0x338>)
 800063e:	          2220      	movs	r2, #32
 8000640:	          701a      	strb	r2, [r3, #0]
 8000642:	          4b54      	ldr	r3, [pc, #336]	; (8000794 <System_Init+0x338>)
 8000644:	          221f      	movs	r2, #31
 8000646:	          705a      	strb	r2, [r3, #1]
 8000648:	          4b52      	ldr	r3, [pc, #328]	; (8000794 <System_Init+0x338>)
 800064a:	          221e      	movs	r2, #30
 800064c:	          709a      	strb	r2, [r3, #2]
 800064e:	          4b51      	ldr	r3, [pc, #324]	; (8000794 <System_Init+0x338>)
 8000650:	          2227      	movs	r2, #39	; 0x27
 8000652:	          70da      	strb	r2, [r3, #3]
 8000654:	          4b4f      	ldr	r3, [pc, #316]	; (8000794 <System_Init+0x338>)
 8000656:	          2210      	movs	r2, #16
 8000658:	          711a      	strb	r2, [r3, #4]
 800065a:	          4b4e      	ldr	r3, [pc, #312]	; (8000794 <System_Init+0x338>)
 800065c:	          221d      	movs	r2, #29
 800065e:	          715a      	strb	r2, [r3, #5]
 8000660:	          4b4c      	ldr	r3, [pc, #304]	; (8000794 <System_Init+0x338>)
 8000662:	          2217      	movs	r2, #23
 8000664:	          719a      	strb	r2, [r3, #6]
 8000666:	          4b4b      	ldr	r3, [pc, #300]	; (8000794 <System_Init+0x338>)
 8000668:	          2209      	movs	r2, #9
 800066a:	          71da      	strb	r2, [r3, #7]
 800066c:	          4b49      	ldr	r3, [pc, #292]	; (8000794 <System_Init+0x338>)
 800066e:	          2209      	movs	r2, #9
 8000670:	          721a      	strb	r2, [r3, #8]
 8000672:	          4b48      	ldr	r3, [pc, #288]	; (8000794 <System_Init+0x338>)
 8000674:	          2209      	movs	r2, #9
 8000676:	          725a      	strb	r2, [r3, #9]
 8000678:	          4b46      	ldr	r3, [pc, #280]	; (8000794 <System_Init+0x338>)
 800067a:	          4a47      	ldr	r2, [pc, #284]	; (8000798 <System_Init+0x33c>)
 800067c:	          60da      	str	r2, [r3, #12]
 800067e:	          4b45      	ldr	r3, [pc, #276]	; (8000794 <System_Init+0x338>)
 8000680:	          2201      	movs	r2, #1
 8000682:	          745a      	strb	r2, [r3, #17]
 8000684:	          4b43      	ldr	r3, [pc, #268]	; (8000794 <System_Init+0x338>)
 8000686:	          2201      	movs	r2, #1
 8000688:	          749a      	strb	r2, [r3, #18]
 800068a:	          4b42      	ldr	r3, [pc, #264]	; (8000794 <System_Init+0x338>)
 800068c:	          4a43      	ldr	r2, [pc, #268]	; (800079c <System_Init+0x340>)
 800068e:	          615a      	str	r2, [r3, #20]
 8000690:	          4b40      	ldr	r3, [pc, #256]	; (8000794 <System_Init+0x338>)
 8000692:	          2201      	movs	r2, #1
 8000694:	          765a      	strb	r2, [r3, #25]
 8000696:	          4b3f      	ldr	r3, [pc, #252]	; (8000794 <System_Init+0x338>)
 8000698:	          2208      	movs	r2, #8
 800069a:	          769a      	strb	r2, [r3, #26]
 800069c:	          4b3d      	ldr	r3, [pc, #244]	; (8000794 <System_Init+0x338>)
 800069e:	          2204      	movs	r2, #4
 80006a0:	          76da      	strb	r2, [r3, #27]
 80006a2:	          4b3c      	ldr	r3, [pc, #240]	; (8000794 <System_Init+0x338>)
 80006a4:	          2201      	movs	r2, #1
 80006a6:	          771a      	strb	r2, [r3, #28]
 80006a8:	          4b3a      	ldr	r3, [pc, #232]	; (8000794 <System_Init+0x338>)
 80006aa:	          2208      	movs	r2, #8
 80006ac:	          83da      	strh	r2, [r3, #30]
 80006ae:	          4b39      	ldr	r3, [pc, #228]	; (8000794 <System_Init+0x338>)
 80006b0:	          220e      	movs	r2, #14
 80006b2:	          f883 2020 	strb.w	r2, [r3, #32]
 80006b6:	          4b37      	ldr	r3, [pc, #220]	; (8000794 <System_Init+0x338>)
 80006b8:	          2203      	movs	r2, #3
 80006ba:	          f883 2021 	strb.w	r2, [r3, #33]	; 0x21
 80006be:	          4b35      	ldr	r3, [pc, #212]	; (8000794 <System_Init+0x338>)
 80006c0:	          2238      	movs	r2, #56	; 0x38
 80006c2:	          f883 2022 	strb.w	r2, [r3, #34]	; 0x22
 80006c6:	          4b33      	ldr	r3, [pc, #204]	; (8000794 <System_Init+0x338>)
 80006c8:	          f241 4224 	movw	r2, #5156	; 0x1424
 80006cc:	          84da      	strh	r2, [r3, #38]	; 0x26
        .crc_on_off = SX126X_CRC_ON,
        .iq_polarity = SX126X_STANDARD_IQ,
        .overCurrentProtection = 0x38,
        .sync_word = 0x1424 //0x1424
    };
    SX126x_Init(&SX1268);
 80006ce:	          4831      	ldr	r0, [pc, #196]	; (8000794 <System_Init+0x338>)
 80006d0:	          f006 fe3a 	bl	8007348 <SX126x_Init>
    uint8_t init_status = RTC_Init();
 80006d4:	          f003 fb08 	bl	8003ce8 <RTC_Init>
 80006d8:	          4603      	mov	r3, r0
 80006da:	          f887 32e5 	strb.w	r3, [r7, #741]	; 0x2e5
    WAKEUP_PERIOD_SEC = 600;
 80006de:	          4b30      	ldr	r3, [pc, #192]	; (80007a0 <System_Init+0x344>)
 80006e0:	          f44f 7216 	mov.w	r2, #600	; 0x258
 80006e4:	          801a      	strh	r2, [r3, #0]

    if(init_status) {  // ship mode
 80006e6:	          f897 32e5 	ldrb.w	r3, [r7, #741]	; 0x2e5
 80006ea:	          2b00      	cmp	r3, #0
 80006ec:	      /-- d00a      	beq.n	8000704 <System_Init+0x2a8>
        SX126x_SendData(&SX1268, (uint8_t*)"Start", 5);
 80006ee:	      |   2205      	movs	r2, #5
 80006f0:	      |   492c      	ldr	r1, [pc, #176]	; (80007a4 <System_Init+0x348>)
 80006f2:	      |   4828      	ldr	r0, [pc, #160]	; (8000794 <System_Init+0x338>)
 80006f4:	      |   f006 fee4 	bl	80074c0 <SX126x_SendData>
        write_single_bkp_reg(10, WAKEUP_PERIOD_SEC);
 80006f8:	      |   4b29      	ldr	r3, [pc, #164]	; (80007a0 <System_Init+0x344>)
 80006fa:	      |   881b      	ldrh	r3, [r3, #0]
 80006fc:	      |   4619      	mov	r1, r3
 80006fe:	      |   200a      	movs	r0, #10
 8000700:	      |   f003 fbea 	bl	8003ed8 <write_single_bkp_reg>
    }

    if(SX1268.self_addr != 1){
 8000704:	      \-> 4b23      	ldr	r3, [pc, #140]	; (8000794 <System_Init+0x338>)
 8000706:	          7c5b      	ldrb	r3, [r3, #17]
 8000708:	          2b01      	cmp	r3, #1
 800070a:	/-------- f000 80c7 	beq.w	800089c <System_Init+0x440>
        uint16_t measured_data[24] = {0};
 800070e:	|         f507 733a 	add.w	r3, r7, #744	; 0x2e8
 8000712:	|         f5a3 7339 	sub.w	r3, r3, #740	; 0x2e4
 8000716:	|         4618      	mov	r0, r3
 8000718:	|         2330      	movs	r3, #48	; 0x30
 800071a:	|         461a      	mov	r2, r3
 800071c:	|         2100      	movs	r1, #0
 800071e:	|         f009 f95f 	bl	80099e0 <memset>
        uint8_t gs_packet[53] = {0};
 8000722:	|         f507 733a 	add.w	r3, r7, #744	; 0x2e8
 8000726:	|         f5a3 732d 	sub.w	r3, r3, #692	; 0x2b4
 800072a:	|         2200      	movs	r2, #0
 800072c:	|         601a      	str	r2, [r3, #0]
 800072e:	|         3304      	adds	r3, #4
 8000730:	|         2231      	movs	r2, #49	; 0x31
 8000732:	|         2100      	movs	r1, #0
 8000734:	|         4618      	mov	r0, r3
 8000736:	|         f009 f953 	bl	80099e0 <memset>
        gs_packet[0] = 0x55;
 800073a:	|         f507 733a 	add.w	r3, r7, #744	; 0x2e8
 800073e:	|         f5a3 732d 	sub.w	r3, r3, #692	; 0x2b4
 8000742:	|         2255      	movs	r2, #85	; 0x55
 8000744:	|         701a      	strb	r2, [r3, #0]
        gs_packet[1] = SX1268.self_addr;
 8000746:	|         4b13      	ldr	r3, [pc, #76]	; (8000794 <System_Init+0x338>)
 8000748:	|         7c5a      	ldrb	r2, [r3, #17]
 800074a:	|         f507 733a 	add.w	r3, r7, #744	; 0x2e8
 800074e:	|         f5a3 732d 	sub.w	r3, r3, #692	; 0x2b4
 8000752:	|         705a      	strb	r2, [r3, #1]
        gs_packet[2] = 0x01;
 8000754:	|         f507 733a 	add.w	r3, r7, #744	; 0x2e8
 8000758:	|         f5a3 732d 	sub.w	r3, r3, #692	; 0x2b4
 800075c:	|         2201      	movs	r2, #1
 800075e:	|         709a      	strb	r2, [r3, #2]
        gs_packet[3] = MY_PERIODIC_DATA;
 8000760:	|         f507 733a 	add.w	r3, r7, #744	; 0x2e8
 8000764:	|         f5a3 732d 	sub.w	r3, r3, #692	; 0x2b4
 8000768:	|         2211      	movs	r2, #17
 800076a:	|         70da      	strb	r2, [r3, #3]
        gs_packet[4] = sizeof(measured_data);
 800076c:	|         f507 733a 	add.w	r3, r7, #744	; 0x2e8
 8000770:	|         f5a3 732d 	sub.w	r3, r3, #692	; 0x2b4
 8000774:	|         2230      	movs	r2, #48	; 0x30
 8000776:	|         711a      	strb	r2, [r3, #4]
        // [control_word, self_id, target_id, cmd, [datetime[], adc_data[], temp_data[], vbat, gsm_vbat],]
        //       1          1         1       1       7           11*2         12*2      1*2     1*2
        for(uint8_t i = 0; i < 12; i++){
 8000778:	|         2300      	movs	r3, #0
 800077a:	|         f887 32e6 	strb.w	r3, [r7, #742]	; 0x2e6
 800077e:	|  /----- e03e      	b.n	80007fe <System_Init+0x3a2>
 8000780:	|  |      0cb0      	lsrs	r0, r6, #18
 8000782:	|  |      2000      	movs	r0, #0
 8000784:	|  |      4400      	add	r0, r0
 8000786:	|  |      4000      	ands	r0, r0
 8000788:	|  |      0b60      	lsrs	r0, r4, #13
 800078a:	|  |      2000      	movs	r0, #0
 800078c:	|  |      0a84      	lsrs	r4, r0, #10
 800078e:	|  |      2000      	movs	r0, #0
 8000790:	|  |      0000      	movs	r0, r0
 8000792:	|  |      5004      	str	r4, [r0, r0]
 8000794:	|  |      09c8      	lsrs	r0, r1, #7
 8000796:	|  |      2000      	movs	r0, #0
 8000798:	|  |      3800      	subs	r0, #0
 800079a:	|  |      4000      	ands	r0, r0
 800079c:	|  |      4780      	blx	r0
 800079e:	|  |      19a1      	adds	r1, r4, r6
 80007a0:	|  |      1288      	asrs	r0, r1, #10
 80007a2:	|  |      2000      	movs	r0, #0
 80007a4:	|  |      aed0      	add	r6, sp, #832	; 0x340
 80007a6:	|  |      0800      	lsrs	r0, r0, #32
            measured_data[i] = adc.reg_channel_queue[i].result;
 80007a8:	|  |  /-> f897 22e6 	ldrb.w	r2, [r7, #742]	; 0x2e6
 80007ac:	|  |  |   f897 12e6 	ldrb.w	r1, [r7, #742]	; 0x2e6
 80007b0:	|  |  |   483f      	ldr	r0, [pc, #252]	; (80008b0 <System_Init+0x454>)
 80007b2:	|  |  |   4613      	mov	r3, r2
 80007b4:	|  |  |   005b      	lsls	r3, r3, #1
 80007b6:	|  |  |   4413      	add	r3, r2
 80007b8:	|  |  |   009b      	lsls	r3, r3, #2
 80007ba:	|  |  |   4403      	add	r3, r0
 80007bc:	|  |  |   330c      	adds	r3, #12
 80007be:	|  |  |   881a      	ldrh	r2, [r3, #0]
 80007c0:	|  |  |   f507 733a 	add.w	r3, r7, #744	; 0x2e8
 80007c4:	|  |  |   f5a3 7339 	sub.w	r3, r3, #740	; 0x2e4
 80007c8:	|  |  |   f823 2011 	strh.w	r2, [r3, r1, lsl #1]
            measured_data[i + 12] = sensors[i].scratchpad.temperature;
 80007cc:	|  |  |   f897 22e6 	ldrb.w	r2, [r7, #742]	; 0x2e6
 80007d0:	|  |  |   f897 32e6 	ldrb.w	r3, [r7, #742]	; 0x2e6
 80007d4:	|  |  |   f103 010c 	add.w	r1, r3, #12
 80007d8:	|  |  |   4836      	ldr	r0, [pc, #216]	; (80008b4 <System_Init+0x458>)
 80007da:	|  |  |   4613      	mov	r3, r2
 80007dc:	|  |  |   00db      	lsls	r3, r3, #3
 80007de:	|  |  |   1a9b      	subs	r3, r3, r2
 80007e0:	|  |  |   009b      	lsls	r3, r3, #2
 80007e2:	|  |  |   4403      	add	r3, r0
 80007e4:	|  |  |   330c      	adds	r3, #12
 80007e6:	|  |  |   881a      	ldrh	r2, [r3, #0]
 80007e8:	|  |  |   f507 733a 	add.w	r3, r7, #744	; 0x2e8
 80007ec:	|  |  |   f5a3 7339 	sub.w	r3, r3, #740	; 0x2e4
 80007f0:	|  |  |   f823 2011 	strh.w	r2, [r3, r1, lsl #1]
        for(uint8_t i = 0; i < 12; i++){
 80007f4:	|  |  |   f897 32e6 	ldrb.w	r3, [r7, #742]	; 0x2e6
 80007f8:	|  |  |   3301      	adds	r3, #1
 80007fa:	|  |  |   f887 32e6 	strb.w	r3, [r7, #742]	; 0x2e6
 80007fe:	|  \--|-> f897 32e6 	ldrb.w	r3, [r7, #742]	; 0x2e6
 8000802:	|     |   2b0b      	cmp	r3, #11
 8000804:	|     \-- d9d0      	bls.n	80007a8 <System_Init+0x34c>
        }
        measured_data[11] = adc.vdda_mvolt;
 8000806:	|         4b2a      	ldr	r3, [pc, #168]	; (80008b0 <System_Init+0x454>)
 8000808:	|         f8b3 20d6 	ldrh.w	r2, [r3, #214]	; 0xd6
 800080c:	|         f507 733a 	add.w	r3, r7, #744	; 0x2e8
 8000810:	|         f5a3 7339 	sub.w	r3, r3, #740	; 0x2e4
 8000814:	|         82da      	strh	r2, [r3, #22]
        memcpy(gs_packet + 5, measured_data, sizeof(measured_data));
 8000816:	|         f107 0334 	add.w	r3, r7, #52	; 0x34
 800081a:	|         3305      	adds	r3, #5
 800081c:	|         1d39      	adds	r1, r7, #4
 800081e:	|         2230      	movs	r2, #48	; 0x30
 8000820:	|         4618      	mov	r0, r3
 8000822:	|         f009 f91d 	bl	8009a60 <memcpy>
        gpio_state(TEMP_SENSOR_PWR_EN, LOW);
 8000826:	|         2100      	movs	r1, #0
 8000828:	|         2028      	movs	r0, #40	; 0x28
 800082a:	|         f001 fbb9 	bl	8001fa0 <gpio_state>
        gpio_state(SOIL_SENSOR_PWR_EN, LOW);
 800082e:	|         2100      	movs	r1, #0
 8000830:	|         2009      	movs	r0, #9
 8000832:	|         f001 fbb5 	bl	8001fa0 <gpio_state>
        gpio_init(SOIL_SENSOR_PWR_EN, Input_mode, Open_drain, pull_down, Input);
 8000836:	|         2304      	movs	r3, #4
 8000838:	|         9300      	str	r3, [sp, #0]
 800083a:	|         2302      	movs	r3, #2
 800083c:	|         2201      	movs	r2, #1
 800083e:	|         2100      	movs	r1, #0
 8000840:	|         2009      	movs	r0, #9
 8000842:	|         f001 fac9 	bl	8001dd8 <gpio_init>
        gpio_init(TEMP_SENSOR_PWR_EN, Input_mode, Open_drain, pull_down, Input);
 8000846:	|         2304      	movs	r3, #4
 8000848:	|         9300      	str	r3, [sp, #0]
 800084a:	|         2302      	movs	r3, #2
 800084c:	|         2201      	movs	r2, #1
 800084e:	|         2100      	movs	r1, #0
 8000850:	|         2028      	movs	r0, #40	; 0x28
 8000852:	|         f001 fac1 	bl	8001dd8 <gpio_init>
        gpio_init(UART2_TX, Input_mode, Open_drain, pull_down, Input);
 8000856:	|         2304      	movs	r3, #4
 8000858:	|         9300      	str	r3, [sp, #0]
 800085a:	|         2302      	movs	r3, #2
 800085c:	|         2201      	movs	r2, #1
 800085e:	|         2100      	movs	r1, #0
 8000860:	|         2003      	movs	r0, #3
 8000862:	|         f001 fab9 	bl	8001dd8 <gpio_init>
        SX126x_SendData(&SX1268, gs_packet, sizeof(gs_packet));
 8000866:	|         f107 0334 	add.w	r3, r7, #52	; 0x34
 800086a:	|         2235      	movs	r2, #53	; 0x35
 800086c:	|         4619      	mov	r1, r3
 800086e:	|         4812      	ldr	r0, [pc, #72]	; (80008b8 <System_Init+0x45c>)
 8000870:	|         f006 fe26 	bl	80074c0 <SX126x_SendData>

        WAKEUP_PERIOD_SEC = RTC->BKP10R;
 8000874:	|         4b11      	ldr	r3, [pc, #68]	; (80008bc <System_Init+0x460>)
 8000876:	|         6f9b      	ldr	r3, [r3, #120]	; 0x78
 8000878:	|         b29a      	uxth	r2, r3
 800087a:	|         4b11      	ldr	r3, [pc, #68]	; (80008c0 <System_Init+0x464>)
 800087c:	|         801a      	strh	r2, [r3, #0]
        RTC_auto_wakeup_enable(WAKEUP_PERIOD_SEC);
 800087e:	|         4b10      	ldr	r3, [pc, #64]	; (80008c0 <System_Init+0x464>)
 8000880:	|         881b      	ldrh	r3, [r3, #0]
 8000882:	|         4618      	mov	r0, r3
 8000884:	|         f002 ff92 	bl	80037ac <RTC_auto_wakeup_enable>
        Delay(2000);
 8000888:	|         f44f 60fa 	mov.w	r0, #2000	; 0x7d0
 800088c:	|         f005 f9a2 	bl	8005bd4 <Delay>
        SX126x_SetSleep(&SX1268);
 8000890:	|         4809      	ldr	r0, [pc, #36]	; (80008b8 <System_Init+0x45c>)
 8000892:	|         f007 f92f 	bl	8007af4 <SX126x_SetSleep>
        stop_cortex();
 8000896:	|         f005 fb43 	bl	8005f20 <stop_cortex>
    } else {
        SX126x_SetRx(&SX1268, 0);
    }

}
 800089a:	|     /-- e003      	b.n	80008a4 <System_Init+0x448>
        SX126x_SetRx(&SX1268, 0);
 800089c:	\-----|-> 2100      	movs	r1, #0
 800089e:	      |   4806      	ldr	r0, [pc, #24]	; (80008b8 <System_Init+0x45c>)
 80008a0:	      |   f007 f8a8 	bl	80079f4 <SX126x_SetRx>
}
 80008a4:	      \-> bf00      	nop
 80008a6:	          f507 773a 	add.w	r7, r7, #744	; 0x2e8
 80008aa:	          46bd      	mov	sp, r7
 80008ac:	          bd80      	pop	{r7, pc}
 80008ae:	          bf00      	nop
 80008b0:	          0a84      	lsrs	r4, r0, #10
 80008b2:	          2000      	movs	r0, #0
 80008b4:	          0b60      	lsrs	r0, r4, #13
 80008b6:	          2000      	movs	r0, #0
 80008b8:	          09c8      	lsrs	r0, r1, #7
 80008ba:	          2000      	movs	r0, #0
 80008bc:	          2800      	cmp	r0, #0
 80008be:	          4000      	ands	r0, r0
 80008c0:	          1288      	asrs	r0, r1, #10
 80008c2:	          2000      	movs	r0, #0

080008c4 <CMD_Parser>:
#include "cli.h"
#include "rtc.h"
#include "string.h"
#include "low_power.h"

void CMD_Parser(SX126x *driver, CommandStruct *pkt){
 80008c4:	                      b580      	push	{r7, lr}
 80008c6:	                      b096      	sub	sp, #88	; 0x58
 80008c8:	                      af00      	add	r7, sp, #0
 80008ca:	                      6078      	str	r0, [r7, #4]
 80008cc:	                      6039      	str	r1, [r7, #0]
    RTC_struct_brief rtc_data;
    uint16_t measured_data[24] = {0};
 80008ce:	                      f107 030c 	add.w	r3, r7, #12
 80008d2:	                      2230      	movs	r2, #48	; 0x30
 80008d4:	                      2100      	movs	r1, #0
 80008d6:	                      4618      	mov	r0, r3
 80008d8:	                      f009 f882 	bl	80099e0 <memset>
    switch (pkt->cmd){
 80008dc:	                      683b      	ldr	r3, [r7, #0]
 80008de:	                      78db      	ldrb	r3, [r3, #3]
 80008e0:	                      3b01      	subs	r3, #1
 80008e2:	                      2b12      	cmp	r3, #18
 80008e4:	/-------------------- f200 820f 	bhi.w	8000d06 <CMD_Parser+0x442>
 80008e8:	|                     a201      	add	r2, pc, #4	; (adr r2, 80008f0 <CMD_Parser+0x2c>)
 80008ea:	|                     f852 f023 	ldr.w	pc, [r2, r3, lsl #2]
 80008ee:	|                     bf00      	nop
 80008f0:	|                     093d      	lsrs	r5, r7, #4
 80008f2:	|                     0800      	lsrs	r0, r0, #32
 80008f4:	|                     0a23      	lsrs	r3, r4, #8
 80008f6:	|                     0800      	lsrs	r0, r0, #32
 80008f8:	|                     09c1      	lsrs	r1, r0, #7
 80008fa:	|                     0800      	lsrs	r0, r0, #32
 80008fc:	|                     09e7      	lsrs	r7, r4, #7
 80008fe:	|                     0800      	lsrs	r0, r0, #32
 8000900:	|                     0a03      	lsrs	r3, r0, #8
 8000902:	|                     0800      	lsrs	r0, r0, #32
 8000904:	|                     09a7      	lsrs	r7, r4, #6
 8000906:	|                     0800      	lsrs	r0, r0, #32
 8000908:	|                     0b1d      	lsrs	r5, r3, #12
 800090a:	|                     0800      	lsrs	r0, r0, #32
 800090c:	|                     0979      	lsrs	r1, r7, #5
 800090e:	|                     0800      	lsrs	r0, r0, #32
 8000910:	|                     0d07      	lsrs	r7, r0, #20
 8000912:	|                     0800      	lsrs	r0, r0, #32
 8000914:	|                     0d07      	lsrs	r7, r0, #20
 8000916:	|                     0800      	lsrs	r0, r0, #32
 8000918:	|                     0d07      	lsrs	r7, r0, #20
 800091a:	|                     0800      	lsrs	r0, r0, #32
 800091c:	|                     0d07      	lsrs	r7, r0, #20
 800091e:	|                     0800      	lsrs	r0, r0, #32
 8000920:	|                     0d07      	lsrs	r7, r0, #20
 8000922:	|                     0800      	lsrs	r0, r0, #32
 8000924:	|                     0d07      	lsrs	r7, r0, #20
 8000926:	|                     0800      	lsrs	r0, r0, #32
 8000928:	|                     0969      	lsrs	r1, r5, #5
 800092a:	|                     0800      	lsrs	r0, r0, #32
 800092c:	|                     0b9b      	lsrs	r3, r3, #14
 800092e:	|                     0800      	lsrs	r0, r0, #32
 8000930:	|                     0c1d      	lsrs	r5, r3, #16
 8000932:	|                     0800      	lsrs	r0, r0, #32
 8000934:	|                     0ba7      	lsrs	r7, r4, #14
 8000936:	|                     0800      	lsrs	r0, r0, #32
 8000938:	|                     0987      	lsrs	r7, r0, #6
 800093a:	|                     0800      	lsrs	r0, r0, #32
        case ECHO:{
            uint8_t target_id = pkt->target_id;
 800093c:	|                     683b      	ldr	r3, [r7, #0]
 800093e:	|                     789b      	ldrb	r3, [r3, #2]
 8000940:	|                     f887 3043 	strb.w	r3, [r7, #67]	; 0x43
            pkt->target_id = pkt->sender_id;
 8000944:	|                     683b      	ldr	r3, [r7, #0]
 8000946:	|                     785a      	ldrb	r2, [r3, #1]
 8000948:	|                     683b      	ldr	r3, [r7, #0]
 800094a:	|                     709a      	strb	r2, [r3, #2]
            pkt->sender_id = target_id;
 800094c:	|                     683b      	ldr	r3, [r7, #0]
 800094e:	|                     f897 2043 	ldrb.w	r2, [r7, #67]	; 0x43
 8000952:	|                     705a      	strb	r2, [r3, #1]
            SX126x_SendData(driver, (uint8_t *)(pkt), pkt->arg_len + 5);
 8000954:	|                     683b      	ldr	r3, [r7, #0]
 8000956:	|                     791b      	ldrb	r3, [r3, #4]
 8000958:	|                     3305      	adds	r3, #5
 800095a:	|                     b2db      	uxtb	r3, r3
 800095c:	|                     461a      	mov	r2, r3
 800095e:	|                     6839      	ldr	r1, [r7, #0]
 8000960:	|                     6878      	ldr	r0, [r7, #4]
 8000962:	|                     f006 fdad 	bl	80074c0 <SX126x_SendData>
            break;
 8000966:	|  /----------------- e1d5      	b.n	8000d14 <CMD_Parser+0x450>
        }
        case GET_RADIO_QUALITY:
            SX126x_SendData(driver, &driver->rssi, 1);
 8000968:	|  |                  687b      	ldr	r3, [r7, #4]
 800096a:	|  |                  3329      	adds	r3, #41	; 0x29
 800096c:	|  |                  2201      	movs	r2, #1
 800096e:	|  |                  4619      	mov	r1, r3
 8000970:	|  |                  6878      	ldr	r0, [r7, #4]
 8000972:	|  |                  f006 fda5 	bl	80074c0 <SX126x_SendData>
            break;
 8000976:	|  +----------------- e1cd      	b.n	8000d14 <CMD_Parser+0x450>
        case SET_PIN_STATE:
            gpio_state(LED, pkt->args[1]);
 8000978:	|  |                  683b      	ldr	r3, [r7, #0]
 800097a:	|  |                  799b      	ldrb	r3, [r3, #6]
 800097c:	|  |                  4619      	mov	r1, r3
 800097e:	|  |                  200a      	movs	r0, #10
 8000980:	|  |                  f001 fb0e 	bl	8001fa0 <gpio_state>
            break;
 8000984:	|  +----------------- e1c6      	b.n	8000d14 <CMD_Parser+0x450>
        case SET_WAKEUP_PERIOD:
            if(pkt->arg_len == 2){
 8000986:	|  |                  683b      	ldr	r3, [r7, #0]
 8000988:	|  |                  791b      	ldrb	r3, [r3, #4]
 800098a:	|  |                  2b02      	cmp	r3, #2
 800098c:	|  |  /-------------- f040 81bd 	bne.w	8000d0a <CMD_Parser+0x446>
                write_single_bkp_reg(10, (pkt->args[0] << 8) | pkt->args[1]);
 8000990:	|  |  |               683b      	ldr	r3, [r7, #0]
 8000992:	|  |  |               795b      	ldrb	r3, [r3, #5]
 8000994:	|  |  |               021b      	lsls	r3, r3, #8
 8000996:	|  |  |               683a      	ldr	r2, [r7, #0]
 8000998:	|  |  |               7992      	ldrb	r2, [r2, #6]
 800099a:	|  |  |               4313      	orrs	r3, r2
 800099c:	|  |  |               4619      	mov	r1, r3
 800099e:	|  |  |               200a      	movs	r0, #10
 80009a0:	|  |  |               f003 fa9a 	bl	8003ed8 <write_single_bkp_reg>
            }
            break;
 80009a4:	|  |  +-------------- e1b1      	b.n	8000d0a <CMD_Parser+0x446>
        case GET_RTC:  // year, weak_day, month, day, hour, min, sec
            RTC_get_time(&rtc_data);
 80009a6:	|  |  |               f107 033c 	add.w	r3, r7, #60	; 0x3c
 80009aa:	|  |  |               4618      	mov	r0, r3
 80009ac:	|  |  |               f003 fb7e 	bl	80040ac <RTC_get_time>
            SX126x_SendData(driver, (uint8_t*)(&rtc_data), 7);
 80009b0:	|  |  |               f107 033c 	add.w	r3, r7, #60	; 0x3c
 80009b4:	|  |  |               2207      	movs	r2, #7
 80009b6:	|  |  |               4619      	mov	r1, r3
 80009b8:	|  |  |               6878      	ldr	r0, [r7, #4]
 80009ba:	|  |  |               f006 fd81 	bl	80074c0 <SX126x_SendData>
            break;
 80009be:	|  +--|-------------- e1a9      	b.n	8000d14 <CMD_Parser+0x450>
        case SET_TIME:  // hour, min, sec
            memcpy((uint8_t*)(&rtc_data) + 4, pkt->args, 3);
 80009c0:	|  |  |               f107 033c 	add.w	r3, r7, #60	; 0x3c
 80009c4:	|  |  |               3304      	adds	r3, #4
 80009c6:	|  |  |               683a      	ldr	r2, [r7, #0]
 80009c8:	|  |  |               1d51      	adds	r1, r2, #5
 80009ca:	|  |  |               2203      	movs	r2, #3
 80009cc:	|  |  |               4618      	mov	r0, r3
 80009ce:	|  |  |               f009 f847 	bl	8009a60 <memcpy>
            RTC_set_time(RTC_struct_brief_time_converter(&rtc_data));
 80009d2:	|  |  |               f107 033c 	add.w	r3, r7, #60	; 0x3c
 80009d6:	|  |  |               4618      	mov	r0, r3
 80009d8:	|  |  |               f002 ffa2 	bl	8003920 <RTC_struct_brief_time_converter>
 80009dc:	|  |  |               4603      	mov	r3, r0
 80009de:	|  |  |               4618      	mov	r0, r3
 80009e0:	|  |  |               f002 ff64 	bl	80038ac <RTC_set_time>
            break;
 80009e4:	|  +--|-------------- e196      	b.n	8000d14 <CMD_Parser+0x450>
        case SET_DATE:  // year, weak_day, month, day
            memcpy((uint8_t*)(&rtc_data), pkt->args, 4);
 80009e6:	|  |  |               683b      	ldr	r3, [r7, #0]
 80009e8:	|  |  |               3305      	adds	r3, #5
 80009ea:	|  |  |               681b      	ldr	r3, [r3, #0]
 80009ec:	|  |  |               63fb      	str	r3, [r7, #60]	; 0x3c
            RTC_set_date(RTC_struct_brief_date_converter(&rtc_data));
 80009ee:	|  |  |               f107 033c 	add.w	r3, r7, #60	; 0x3c
 80009f2:	|  |  |               4618      	mov	r0, r3
 80009f4:	|  |  |               f002 fff0 	bl	80039d8 <RTC_struct_brief_date_converter>
 80009f8:	|  |  |               4603      	mov	r3, r0
 80009fa:	|  |  |               4618      	mov	r0, r3
 80009fc:	|  |  |               f003 f850 	bl	8003aa0 <RTC_set_date>
            break;
 8000a00:	|  +--|-------------- e188      	b.n	8000d14 <CMD_Parser+0x450>
        case SET_RTC:  // year, weak_day, month, day, hour, min, sec
            memcpy((uint8_t*)(&rtc_data), pkt->args, 7);
 8000a02:	|  |  |               683b      	ldr	r3, [r7, #0]
 8000a04:	|  |  |               1d5a      	adds	r2, r3, #5
 8000a06:	|  |  |               f107 033c 	add.w	r3, r7, #60	; 0x3c
 8000a0a:	|  |  |               6810      	ldr	r0, [r2, #0]
 8000a0c:	|  |  |               6018      	str	r0, [r3, #0]
 8000a0e:	|  |  |               8891      	ldrh	r1, [r2, #4]
 8000a10:	|  |  |               7992      	ldrb	r2, [r2, #6]
 8000a12:	|  |  |               8099      	strh	r1, [r3, #4]
 8000a14:	|  |  |               719a      	strb	r2, [r3, #6]
            RTC_data_update(&rtc_data);
 8000a16:	|  |  |               f107 033c 	add.w	r3, r7, #60	; 0x3c
 8000a1a:	|  |  |               4618      	mov	r0, r3
 8000a1c:	|  |  |               f003 f87a 	bl	8003b14 <RTC_data_update>
            break;
 8000a20:	|  +--|-------------- e178      	b.n	8000d14 <CMD_Parser+0x450>
        case SINGLE_MEASURE:
            gpio_state(TEMP_SENSOR_PWR_EN, HIGH);
 8000a22:	|  |  |               2101      	movs	r1, #1
 8000a24:	|  |  |               2028      	movs	r0, #40	; 0x28
 8000a26:	|  |  |               f001 fabb 	bl	8001fa0 <gpio_state>
            gpio_state(SOIL_SENSOR_PWR_EN, HIGH);
 8000a2a:	|  |  |               2101      	movs	r1, #1
 8000a2c:	|  |  |               2009      	movs	r0, #9
 8000a2e:	|  |  |               f001 fab7 	bl	8001fa0 <gpio_state>
            uint8_t status = DS18B20_StartTempMeas(&ow);
 8000a32:	|  |  |               48ba      	ldr	r0, [pc, #744]	; (8000d1c <CMD_Parser+0x458>)
 8000a34:	|  |  |               f005 fc92 	bl	800635c <DS18B20_StartTempMeas>
 8000a38:	|  |  |               4603      	mov	r3, r0
 8000a3a:	|  |  |               f887 3057 	strb.w	r3, [r7, #87]	; 0x57
            for(uint8_t i = 0; i < 12; i++)
 8000a3e:	|  |  |               2300      	movs	r3, #0
 8000a40:	|  |  |               f887 3056 	strb.w	r3, [r7, #86]	; 0x56
 8000a44:	|  |  |           /-- e016      	b.n	8000a74 <CMD_Parser+0x1b0>
                status += DS18B20_ReadScratchpad(&sensors[i]);
 8000a46:	|  |  |        /--|-> f897 2056 	ldrb.w	r2, [r7, #86]	; 0x56
 8000a4a:	|  |  |        |  |   4613      	mov	r3, r2
 8000a4c:	|  |  |        |  |   00db      	lsls	r3, r3, #3
 8000a4e:	|  |  |        |  |   1a9b      	subs	r3, r3, r2
 8000a50:	|  |  |        |  |   009b      	lsls	r3, r3, #2
 8000a52:	|  |  |        |  |   4ab3      	ldr	r2, [pc, #716]	; (8000d20 <CMD_Parser+0x45c>)
 8000a54:	|  |  |        |  |   4413      	add	r3, r2
 8000a56:	|  |  |        |  |   4618      	mov	r0, r3
 8000a58:	|  |  |        |  |   f005 fc9c 	bl	8006394 <DS18B20_ReadScratchpad>
 8000a5c:	|  |  |        |  |   4603      	mov	r3, r0
 8000a5e:	|  |  |        |  |   461a      	mov	r2, r3
 8000a60:	|  |  |        |  |   f897 3057 	ldrb.w	r3, [r7, #87]	; 0x57
 8000a64:	|  |  |        |  |   4413      	add	r3, r2
 8000a66:	|  |  |        |  |   f887 3057 	strb.w	r3, [r7, #87]	; 0x57
            for(uint8_t i = 0; i < 12; i++)
 8000a6a:	|  |  |        |  |   f897 3056 	ldrb.w	r3, [r7, #86]	; 0x56
 8000a6e:	|  |  |        |  |   3301      	adds	r3, #1
 8000a70:	|  |  |        |  |   f887 3056 	strb.w	r3, [r7, #86]	; 0x56
 8000a74:	|  |  |        |  \-> f897 3056 	ldrb.w	r3, [r7, #86]	; 0x56
 8000a78:	|  |  |        |      2b0b      	cmp	r3, #11
 8000a7a:	|  |  |        \----- d9e4      	bls.n	8000a46 <CMD_Parser+0x182>
            ADC_Start(&adc);
 8000a7c:	|  |  |               48a9      	ldr	r0, [pc, #676]	; (8000d24 <CMD_Parser+0x460>)
 8000a7e:	|  |  |               f001 f890 	bl	8001ba2 <ADC_Start>
            while(adc.measure_process);
 8000a82:	|  |  |               bf00      	nop
 8000a84:	|  |  |           /-> 4ba7      	ldr	r3, [pc, #668]	; (8000d24 <CMD_Parser+0x460>)
 8000a86:	|  |  |           |   f893 30d8 	ldrb.w	r3, [r3, #216]	; 0xd8
 8000a8a:	|  |  |           |   2b00      	cmp	r3, #0
 8000a8c:	|  |  |           \-- d1fa      	bne.n	8000a84 <CMD_Parser+0x1c0>
            for(uint8_t i = 0; i < 12; i++){
 8000a8e:	|  |  |               2300      	movs	r3, #0
 8000a90:	|  |  |               f887 3055 	strb.w	r3, [r7, #85]	; 0x55
 8000a94:	|  |  |           /-- e02a      	b.n	8000aec <CMD_Parser+0x228>
                measured_data[i] = adc.reg_channel_queue[i].result;
 8000a96:	|  |  |        /--|-> f897 2055 	ldrb.w	r2, [r7, #85]	; 0x55
 8000a9a:	|  |  |        |  |   f897 1055 	ldrb.w	r1, [r7, #85]	; 0x55
 8000a9e:	|  |  |        |  |   48a1      	ldr	r0, [pc, #644]	; (8000d24 <CMD_Parser+0x460>)
 8000aa0:	|  |  |        |  |   4613      	mov	r3, r2
 8000aa2:	|  |  |        |  |   005b      	lsls	r3, r3, #1
 8000aa4:	|  |  |        |  |   4413      	add	r3, r2
 8000aa6:	|  |  |        |  |   009b      	lsls	r3, r3, #2
 8000aa8:	|  |  |        |  |   4403      	add	r3, r0
 8000aaa:	|  |  |        |  |   330c      	adds	r3, #12
 8000aac:	|  |  |        |  |   881a      	ldrh	r2, [r3, #0]
 8000aae:	|  |  |        |  |   004b      	lsls	r3, r1, #1
 8000ab0:	|  |  |        |  |   f107 0158 	add.w	r1, r7, #88	; 0x58
 8000ab4:	|  |  |        |  |   440b      	add	r3, r1
 8000ab6:	|  |  |        |  |   f823 2c4c 	strh.w	r2, [r3, #-76]
                measured_data[i + 12] = sensors[i].scratchpad.temperature;
 8000aba:	|  |  |        |  |   f897 2055 	ldrb.w	r2, [r7, #85]	; 0x55
 8000abe:	|  |  |        |  |   f897 3055 	ldrb.w	r3, [r7, #85]	; 0x55
 8000ac2:	|  |  |        |  |   f103 010c 	add.w	r1, r3, #12
 8000ac6:	|  |  |        |  |   4896      	ldr	r0, [pc, #600]	; (8000d20 <CMD_Parser+0x45c>)
 8000ac8:	|  |  |        |  |   4613      	mov	r3, r2
 8000aca:	|  |  |        |  |   00db      	lsls	r3, r3, #3
 8000acc:	|  |  |        |  |   1a9b      	subs	r3, r3, r2
 8000ace:	|  |  |        |  |   009b      	lsls	r3, r3, #2
 8000ad0:	|  |  |        |  |   4403      	add	r3, r0
 8000ad2:	|  |  |        |  |   330c      	adds	r3, #12
 8000ad4:	|  |  |        |  |   881a      	ldrh	r2, [r3, #0]
 8000ad6:	|  |  |        |  |   004b      	lsls	r3, r1, #1
 8000ad8:	|  |  |        |  |   f107 0158 	add.w	r1, r7, #88	; 0x58
 8000adc:	|  |  |        |  |   440b      	add	r3, r1
 8000ade:	|  |  |        |  |   f823 2c4c 	strh.w	r2, [r3, #-76]
            for(uint8_t i = 0; i < 12; i++){
 8000ae2:	|  |  |        |  |   f897 3055 	ldrb.w	r3, [r7, #85]	; 0x55
 8000ae6:	|  |  |        |  |   3301      	adds	r3, #1
 8000ae8:	|  |  |        |  |   f887 3055 	strb.w	r3, [r7, #85]	; 0x55
 8000aec:	|  |  |        |  \-> f897 3055 	ldrb.w	r3, [r7, #85]	; 0x55
 8000af0:	|  |  |        |      2b0b      	cmp	r3, #11
 8000af2:	|  |  |        \----- d9d0      	bls.n	8000a96 <CMD_Parser+0x1d2>
            }
            measured_data[11] = adc.vdda_mvolt;
 8000af4:	|  |  |               4b8b      	ldr	r3, [pc, #556]	; (8000d24 <CMD_Parser+0x460>)
 8000af6:	|  |  |               f8b3 30d6 	ldrh.w	r3, [r3, #214]	; 0xd6
 8000afa:	|  |  |               847b      	strh	r3, [r7, #34]	; 0x22
            gpio_state(TEMP_SENSOR_PWR_EN, LOW);
 8000afc:	|  |  |               2100      	movs	r1, #0
 8000afe:	|  |  |               2028      	movs	r0, #40	; 0x28
 8000b00:	|  |  |               f001 fa4e 	bl	8001fa0 <gpio_state>
            gpio_state(SOIL_SENSOR_PWR_EN, LOW);
 8000b04:	|  |  |               2100      	movs	r1, #0
 8000b06:	|  |  |               2009      	movs	r0, #9
 8000b08:	|  |  |               f001 fa4a 	bl	8001fa0 <gpio_state>
            SX126x_SendData(driver, (uint8_t*)(&measured_data), 48);
 8000b0c:	|  |  |               f107 030c 	add.w	r3, r7, #12
 8000b10:	|  |  |               2230      	movs	r2, #48	; 0x30
 8000b12:	|  |  |               4619      	mov	r1, r3
 8000b14:	|  |  |               6878      	ldr	r0, [r7, #4]
 8000b16:	|  |  |               f006 fcd3 	bl	80074c0 <SX126x_SendData>
            break;
 8000b1a:	|  +--|-------------- e0fb      	b.n	8000d14 <CMD_Parser+0x450>
        case GET_MEASURED_DATA:
            for(uint8_t i = 0; i < 12; i++){
 8000b1c:	|  |  |               2300      	movs	r3, #0
 8000b1e:	|  |  |               f887 3054 	strb.w	r3, [r7, #84]	; 0x54
 8000b22:	|  |  |           /-- e02a      	b.n	8000b7a <CMD_Parser+0x2b6>
                measured_data[i] = adc.reg_channel_queue[i].result;
 8000b24:	|  |  |        /--|-> f897 2054 	ldrb.w	r2, [r7, #84]	; 0x54
 8000b28:	|  |  |        |  |   f897 1054 	ldrb.w	r1, [r7, #84]	; 0x54
 8000b2c:	|  |  |        |  |   487d      	ldr	r0, [pc, #500]	; (8000d24 <CMD_Parser+0x460>)
 8000b2e:	|  |  |        |  |   4613      	mov	r3, r2
 8000b30:	|  |  |        |  |   005b      	lsls	r3, r3, #1
 8000b32:	|  |  |        |  |   4413      	add	r3, r2
 8000b34:	|  |  |        |  |   009b      	lsls	r3, r3, #2
 8000b36:	|  |  |        |  |   4403      	add	r3, r0
 8000b38:	|  |  |        |  |   330c      	adds	r3, #12
 8000b3a:	|  |  |        |  |   881a      	ldrh	r2, [r3, #0]
 8000b3c:	|  |  |        |  |   004b      	lsls	r3, r1, #1
 8000b3e:	|  |  |        |  |   f107 0158 	add.w	r1, r7, #88	; 0x58
 8000b42:	|  |  |        |  |   440b      	add	r3, r1
 8000b44:	|  |  |        |  |   f823 2c4c 	strh.w	r2, [r3, #-76]
                measured_data[i + 12] = sensors[i].scratchpad.temperature;
 8000b48:	|  |  |        |  |   f897 2054 	ldrb.w	r2, [r7, #84]	; 0x54
 8000b4c:	|  |  |        |  |   f897 3054 	ldrb.w	r3, [r7, #84]	; 0x54
 8000b50:	|  |  |        |  |   f103 010c 	add.w	r1, r3, #12
 8000b54:	|  |  |        |  |   4872      	ldr	r0, [pc, #456]	; (8000d20 <CMD_Parser+0x45c>)
 8000b56:	|  |  |        |  |   4613      	mov	r3, r2
 8000b58:	|  |  |        |  |   00db      	lsls	r3, r3, #3
 8000b5a:	|  |  |        |  |   1a9b      	subs	r3, r3, r2
 8000b5c:	|  |  |        |  |   009b      	lsls	r3, r3, #2
 8000b5e:	|  |  |        |  |   4403      	add	r3, r0
 8000b60:	|  |  |        |  |   330c      	adds	r3, #12
 8000b62:	|  |  |        |  |   881a      	ldrh	r2, [r3, #0]
 8000b64:	|  |  |        |  |   004b      	lsls	r3, r1, #1
 8000b66:	|  |  |        |  |   f107 0158 	add.w	r1, r7, #88	; 0x58
 8000b6a:	|  |  |        |  |   440b      	add	r3, r1
 8000b6c:	|  |  |        |  |   f823 2c4c 	strh.w	r2, [r3, #-76]
            for(uint8_t i = 0; i < 12; i++){
 8000b70:	|  |  |        |  |   f897 3054 	ldrb.w	r3, [r7, #84]	; 0x54
 8000b74:	|  |  |        |  |   3301      	adds	r3, #1
 8000b76:	|  |  |        |  |   f887 3054 	strb.w	r3, [r7, #84]	; 0x54
 8000b7a:	|  |  |        |  \-> f897 3054 	ldrb.w	r3, [r7, #84]	; 0x54
 8000b7e:	|  |  |        |      2b0b      	cmp	r3, #11
 8000b80:	|  |  |        \----- d9d0      	bls.n	8000b24 <CMD_Parser+0x260>
            }
            measured_data[12] = adc.vdda_mvolt;
 8000b82:	|  |  |               4b68      	ldr	r3, [pc, #416]	; (8000d24 <CMD_Parser+0x460>)
 8000b84:	|  |  |               f8b3 30d6 	ldrh.w	r3, [r3, #214]	; 0xd6
 8000b88:	|  |  |               84bb      	strh	r3, [r7, #36]	; 0x24
            SX126x_SendData(driver, (uint8_t*)(&measured_data), 48);
 8000b8a:	|  |  |               f107 030c 	add.w	r3, r7, #12
 8000b8e:	|  |  |               2230      	movs	r2, #48	; 0x30
 8000b90:	|  |  |               4619      	mov	r1, r3
 8000b92:	|  |  |               6878      	ldr	r0, [r7, #4]
 8000b94:	|  |  |               f006 fc94 	bl	80074c0 <SX126x_SendData>
            break;
 8000b98:	|  +--|-------------- e0bc      	b.n	8000d14 <CMD_Parser+0x450>
        case GET_BATTERY:
            SX126x_SendData(driver, (uint8_t*)(&adc.vdda_mvolt), 2);
 8000b9a:	|  |  |               2202      	movs	r2, #2
 8000b9c:	|  |  |               4962      	ldr	r1, [pc, #392]	; (8000d28 <CMD_Parser+0x464>)
 8000b9e:	|  |  |               6878      	ldr	r0, [r7, #4]
 8000ba0:	|  |  |               f006 fc8e 	bl	80074c0 <SX126x_SendData>
            break;
 8000ba4:	|  +--|-------------- e0b6      	b.n	8000d14 <CMD_Parser+0x450>
        case GO_SLEEP:
            if(pkt->arg_len == 3){
 8000ba6:	|  |  |               683b      	ldr	r3, [r7, #0]
 8000ba8:	|  |  |               791b      	ldrb	r3, [r3, #4]
 8000baa:	|  |  |               2b03      	cmp	r3, #3
 8000bac:	|  |  |  /----------- f040 80af 	bne.w	8000d0e <CMD_Parser+0x44a>
                uint8_t waiting_time_sec = pkt->args[0];
 8000bb0:	|  |  |  |            683b      	ldr	r3, [r7, #0]
 8000bb2:	|  |  |  |            795b      	ldrb	r3, [r3, #5]
 8000bb4:	|  |  |  |            f887 304b 	strb.w	r3, [r7, #75]	; 0x4b
                uint16_t sleep_time_sec = (pkt->args[1] << 8) | pkt->args[2];
 8000bb8:	|  |  |  |            683b      	ldr	r3, [r7, #0]
 8000bba:	|  |  |  |            799b      	ldrb	r3, [r3, #6]
 8000bbc:	|  |  |  |            021b      	lsls	r3, r3, #8
 8000bbe:	|  |  |  |            b21a      	sxth	r2, r3
 8000bc0:	|  |  |  |            683b      	ldr	r3, [r7, #0]
 8000bc2:	|  |  |  |            79db      	ldrb	r3, [r3, #7]
 8000bc4:	|  |  |  |            b21b      	sxth	r3, r3
 8000bc6:	|  |  |  |            4313      	orrs	r3, r2
 8000bc8:	|  |  |  |            b21b      	sxth	r3, r3
 8000bca:	|  |  |  |            f8a7 3048 	strh.w	r3, [r7, #72]	; 0x48
                if(sim7000g.status.gprs_connected){
 8000bce:	|  |  |  |            4b57      	ldr	r3, [pc, #348]	; (8000d2c <CMD_Parser+0x468>)
 8000bd0:	|  |  |  |            f893 3071 	ldrb.w	r3, [r3, #113]	; 0x71
 8000bd4:	|  |  |  |            f023 037f 	bic.w	r3, r3, #127	; 0x7f
 8000bd8:	|  |  |  |            b2db      	uxtb	r3, r3
 8000bda:	|  |  |  |            2b00      	cmp	r3, #0
 8000bdc:	|  |  |  |        /-- d005      	beq.n	8000bea <CMD_Parser+0x326>
                    GSM_CloseConnections(&sim7000g);
 8000bde:	|  |  |  |        |   4853      	ldr	r0, [pc, #332]	; (8000d2c <CMD_Parser+0x468>)
 8000be0:	|  |  |  |        |   f005 ff7e 	bl	8006ae0 <GSM_CloseConnections>
                    GSM_PowerOFF(&sim7000g);
 8000be4:	|  |  |  |        |   4851      	ldr	r0, [pc, #324]	; (8000d2c <CMD_Parser+0x468>)
 8000be6:	|  |  |  |        |   f005 fe1b 	bl	8006820 <GSM_PowerOFF>
                }
                SX126x_SetSleep(&SX1268);
 8000bea:	|  |  |  |        \-> 4851      	ldr	r0, [pc, #324]	; (8000d30 <CMD_Parser+0x46c>)
 8000bec:	|  |  |  |            f006 ff82 	bl	8007af4 <SX126x_SetSleep>
                Delay(waiting_time_sec * 1000);
 8000bf0:	|  |  |  |            f897 304b 	ldrb.w	r3, [r7, #75]	; 0x4b
 8000bf4:	|  |  |  |            f44f 727a 	mov.w	r2, #1000	; 0x3e8
 8000bf8:	|  |  |  |            fb02 f303 	mul.w	r3, r2, r3
 8000bfc:	|  |  |  |            4618      	mov	r0, r3
 8000bfe:	|  |  |  |            f004 ffe9 	bl	8005bd4 <Delay>
                if(sleep_time_sec > 0){
 8000c02:	|  |  |  |            f8b7 3048 	ldrh.w	r3, [r7, #72]	; 0x48
 8000c06:	|  |  |  |            2b00      	cmp	r3, #0
 8000c08:	|  |  |  +----------- f000 8081 	beq.w	8000d0e <CMD_Parser+0x44a>
                    RTC_auto_wakeup_enable(sleep_time_sec);
 8000c0c:	|  |  |  |            f8b7 3048 	ldrh.w	r3, [r7, #72]	; 0x48
 8000c10:	|  |  |  |            4618      	mov	r0, r3
 8000c12:	|  |  |  |            f002 fdcb 	bl	80037ac <RTC_auto_wakeup_enable>
                    stop_cortex();
 8000c16:	|  |  |  |            f005 f983 	bl	8005f20 <stop_cortex>
                }
            }
            break;
 8000c1a:	|  |  |  +----------- e078      	b.n	8000d0e <CMD_Parser+0x44a>
        case MY_PERIODIC_DATA:  // rtc[7], measured_data[48], signal_params[3]
            RTC_get_time(&current_rtc);
 8000c1c:	|  |  |  |            4845      	ldr	r0, [pc, #276]	; (8000d34 <CMD_Parser+0x470>)
 8000c1e:	|  |  |  |            f003 fa45 	bl	80040ac <RTC_get_time>
            uint8_t *gs_buffer_ptr;
            uint16_t *buffer_counter_ptr;
            if(pkt->sender_id == 2) {
 8000c22:	|  |  |  |            683b      	ldr	r3, [r7, #0]
 8000c24:	|  |  |  |            785b      	ldrb	r3, [r3, #1]
 8000c26:	|  |  |  |            2b02      	cmp	r3, #2
 8000c28:	|  |  |  |        /-- d104      	bne.n	8000c34 <CMD_Parser+0x370>
                gs_buffer_ptr = gs2_buffer;
 8000c2a:	|  |  |  |        |   4b43      	ldr	r3, [pc, #268]	; (8000d38 <CMD_Parser+0x474>)
 8000c2c:	|  |  |  |        |   653b      	str	r3, [r7, #80]	; 0x50
                buffer_counter_ptr = (uint16_t*)(&gs2_buf_ptr);
 8000c2e:	|  |  |  |        |   4b43      	ldr	r3, [pc, #268]	; (8000d3c <CMD_Parser+0x478>)
 8000c30:	|  |  |  |        |   64fb      	str	r3, [r7, #76]	; 0x4c
 8000c32:	|  |  |  |     /--|-- e007      	b.n	8000c44 <CMD_Parser+0x380>
            } else if(pkt->sender_id == 3) {
 8000c34:	|  |  |  |     |  \-> 683b      	ldr	r3, [r7, #0]
 8000c36:	|  |  |  |     |      785b      	ldrb	r3, [r3, #1]
 8000c38:	|  |  |  |     |      2b03      	cmp	r3, #3
 8000c3a:	|  |  |  |  /--|----- d16a      	bne.n	8000d12 <CMD_Parser+0x44e>
                gs_buffer_ptr = gs3_buffer;
 8000c3c:	|  |  |  |  |  |      4b40      	ldr	r3, [pc, #256]	; (8000d40 <CMD_Parser+0x47c>)
 8000c3e:	|  |  |  |  |  |      653b      	str	r3, [r7, #80]	; 0x50
                buffer_counter_ptr = (uint16_t*)(&gs3_buf_ptr);
 8000c40:	|  |  |  |  |  |      4b40      	ldr	r3, [pc, #256]	; (8000d44 <CMD_Parser+0x480>)
 8000c42:	|  |  |  |  |  |      64fb      	str	r3, [r7, #76]	; 0x4c
            } else break;
            if((*buffer_counter_ptr) + sizeof(current_rtc) + pkt->arg_len + 3 < sizeof(data_buffer)){
 8000c44:	|  |  |  |  |  \----> 6cfb      	ldr	r3, [r7, #76]	; 0x4c
 8000c46:	|  |  |  |  |         881b      	ldrh	r3, [r3, #0]
 8000c48:	|  |  |  |  |         461a      	mov	r2, r3
 8000c4a:	|  |  |  |  |         683b      	ldr	r3, [r7, #0]
 8000c4c:	|  |  |  |  |         791b      	ldrb	r3, [r3, #4]
 8000c4e:	|  |  |  |  |         4413      	add	r3, r2
 8000c50:	|  |  |  |  |         330a      	adds	r3, #10
 8000c52:	|  |  |  |  |         f5b3 7f40 	cmp.w	r3, #768	; 0x300
 8000c56:	|  |  |  |  |     /-- d244      	bcs.n	8000ce2 <CMD_Parser+0x41e>
                memcpy(gs_buffer_ptr + (*buffer_counter_ptr), &current_rtc, sizeof(current_rtc));
 8000c58:	|  |  |  |  |     |   6cfb      	ldr	r3, [r7, #76]	; 0x4c
 8000c5a:	|  |  |  |  |     |   881b      	ldrh	r3, [r3, #0]
 8000c5c:	|  |  |  |  |     |   461a      	mov	r2, r3
 8000c5e:	|  |  |  |  |     |   6d3b      	ldr	r3, [r7, #80]	; 0x50
 8000c60:	|  |  |  |  |     |   4413      	add	r3, r2
 8000c62:	|  |  |  |  |     |   4a34      	ldr	r2, [pc, #208]	; (8000d34 <CMD_Parser+0x470>)
 8000c64:	|  |  |  |  |     |   6810      	ldr	r0, [r2, #0]
 8000c66:	|  |  |  |  |     |   6018      	str	r0, [r3, #0]
 8000c68:	|  |  |  |  |     |   8891      	ldrh	r1, [r2, #4]
 8000c6a:	|  |  |  |  |     |   7992      	ldrb	r2, [r2, #6]
 8000c6c:	|  |  |  |  |     |   8099      	strh	r1, [r3, #4]
 8000c6e:	|  |  |  |  |     |   719a      	strb	r2, [r3, #6]
                (*buffer_counter_ptr) += sizeof(current_rtc);
 8000c70:	|  |  |  |  |     |   6cfb      	ldr	r3, [r7, #76]	; 0x4c
 8000c72:	|  |  |  |  |     |   881b      	ldrh	r3, [r3, #0]
 8000c74:	|  |  |  |  |     |   3307      	adds	r3, #7
 8000c76:	|  |  |  |  |     |   b29a      	uxth	r2, r3
 8000c78:	|  |  |  |  |     |   6cfb      	ldr	r3, [r7, #76]	; 0x4c
 8000c7a:	|  |  |  |  |     |   801a      	strh	r2, [r3, #0]
                memcpy(gs_buffer_ptr + (*buffer_counter_ptr), pkt->args, pkt->arg_len);
 8000c7c:	|  |  |  |  |     |   6cfb      	ldr	r3, [r7, #76]	; 0x4c
 8000c7e:	|  |  |  |  |     |   881b      	ldrh	r3, [r3, #0]
 8000c80:	|  |  |  |  |     |   461a      	mov	r2, r3
 8000c82:	|  |  |  |  |     |   6d3b      	ldr	r3, [r7, #80]	; 0x50
 8000c84:	|  |  |  |  |     |   1898      	adds	r0, r3, r2
 8000c86:	|  |  |  |  |     |   683b      	ldr	r3, [r7, #0]
 8000c88:	|  |  |  |  |     |   1d59      	adds	r1, r3, #5
 8000c8a:	|  |  |  |  |     |   683b      	ldr	r3, [r7, #0]
 8000c8c:	|  |  |  |  |     |   791b      	ldrb	r3, [r3, #4]
 8000c8e:	|  |  |  |  |     |   461a      	mov	r2, r3
 8000c90:	|  |  |  |  |     |   f008 fee6 	bl	8009a60 <memcpy>
                (*buffer_counter_ptr) += pkt->arg_len;
 8000c94:	|  |  |  |  |     |   6cfb      	ldr	r3, [r7, #76]	; 0x4c
 8000c96:	|  |  |  |  |     |   881a      	ldrh	r2, [r3, #0]
 8000c98:	|  |  |  |  |     |   683b      	ldr	r3, [r7, #0]
 8000c9a:	|  |  |  |  |     |   791b      	ldrb	r3, [r3, #4]
 8000c9c:	|  |  |  |  |     |   b29b      	uxth	r3, r3
 8000c9e:	|  |  |  |  |     |   4413      	add	r3, r2
 8000ca0:	|  |  |  |  |     |   b29a      	uxth	r2, r3
 8000ca2:	|  |  |  |  |     |   6cfb      	ldr	r3, [r7, #76]	; 0x4c
 8000ca4:	|  |  |  |  |     |   801a      	strh	r2, [r3, #0]
                uint8_t signal[3] = {SX1268.signal_rssi, SX1268.snr, SX1268.rssi};
 8000ca6:	|  |  |  |  |     |   4b22      	ldr	r3, [pc, #136]	; (8000d30 <CMD_Parser+0x46c>)
 8000ca8:	|  |  |  |  |     |   f893 302b 	ldrb.w	r3, [r3, #43]	; 0x2b
 8000cac:	|  |  |  |  |     |   723b      	strb	r3, [r7, #8]
 8000cae:	|  |  |  |  |     |   4b20      	ldr	r3, [pc, #128]	; (8000d30 <CMD_Parser+0x46c>)
 8000cb0:	|  |  |  |  |     |   f893 302a 	ldrb.w	r3, [r3, #42]	; 0x2a
 8000cb4:	|  |  |  |  |     |   727b      	strb	r3, [r7, #9]
 8000cb6:	|  |  |  |  |     |   4b1e      	ldr	r3, [pc, #120]	; (8000d30 <CMD_Parser+0x46c>)
 8000cb8:	|  |  |  |  |     |   f893 3029 	ldrb.w	r3, [r3, #41]	; 0x29
 8000cbc:	|  |  |  |  |     |   72bb      	strb	r3, [r7, #10]
                memcpy(gs_buffer_ptr + (*buffer_counter_ptr), signal, 3);
 8000cbe:	|  |  |  |  |     |   6cfb      	ldr	r3, [r7, #76]	; 0x4c
 8000cc0:	|  |  |  |  |     |   881b      	ldrh	r3, [r3, #0]
 8000cc2:	|  |  |  |  |     |   461a      	mov	r2, r3
 8000cc4:	|  |  |  |  |     |   6d3b      	ldr	r3, [r7, #80]	; 0x50
 8000cc6:	|  |  |  |  |     |   4413      	add	r3, r2
 8000cc8:	|  |  |  |  |     |   461a      	mov	r2, r3
 8000cca:	|  |  |  |  |     |   f107 0308 	add.w	r3, r7, #8
 8000cce:	|  |  |  |  |     |   8819      	ldrh	r1, [r3, #0]
 8000cd0:	|  |  |  |  |     |   789b      	ldrb	r3, [r3, #2]
 8000cd2:	|  |  |  |  |     |   8011      	strh	r1, [r2, #0]
 8000cd4:	|  |  |  |  |     |   7093      	strb	r3, [r2, #2]
                (*buffer_counter_ptr) += 3;
 8000cd6:	|  |  |  |  |     |   6cfb      	ldr	r3, [r7, #76]	; 0x4c
 8000cd8:	|  |  |  |  |     |   881b      	ldrh	r3, [r3, #0]
 8000cda:	|  |  |  |  |     |   3303      	adds	r3, #3
 8000cdc:	|  |  |  |  |     |   b29a      	uxth	r2, r3
 8000cde:	|  |  |  |  |     |   6cfb      	ldr	r3, [r7, #76]	; 0x4c
 8000ce0:	|  |  |  |  |     |   801a      	strh	r2, [r3, #0]
            }
            uint32_t time_stamp = (current_rtc.hours << 16) | (current_rtc.minutes << 8 ) | current_rtc.seconds;
 8000ce2:	|  |  |  |  |     \-> 4b14      	ldr	r3, [pc, #80]	; (8000d34 <CMD_Parser+0x470>)
 8000ce4:	|  |  |  |  |         791b      	ldrb	r3, [r3, #4]
 8000ce6:	|  |  |  |  |         041a      	lsls	r2, r3, #16
 8000ce8:	|  |  |  |  |         4b12      	ldr	r3, [pc, #72]	; (8000d34 <CMD_Parser+0x470>)
 8000cea:	|  |  |  |  |         795b      	ldrb	r3, [r3, #5]
 8000cec:	|  |  |  |  |         021b      	lsls	r3, r3, #8
 8000cee:	|  |  |  |  |         4313      	orrs	r3, r2
 8000cf0:	|  |  |  |  |         4a10      	ldr	r2, [pc, #64]	; (8000d34 <CMD_Parser+0x470>)
 8000cf2:	|  |  |  |  |         7992      	ldrb	r2, [r2, #6]
 8000cf4:	|  |  |  |  |         4313      	orrs	r3, r2
 8000cf6:	|  |  |  |  |         647b      	str	r3, [r7, #68]	; 0x44
            write_single_bkp_reg(pkt->sender_id, time_stamp);
 8000cf8:	|  |  |  |  |         683b      	ldr	r3, [r7, #0]
 8000cfa:	|  |  |  |  |         785b      	ldrb	r3, [r3, #1]
 8000cfc:	|  |  |  |  |         6c79      	ldr	r1, [r7, #68]	; 0x44
 8000cfe:	|  |  |  |  |         4618      	mov	r0, r3
 8000d00:	|  |  |  |  |         f003 f8ea 	bl	8003ed8 <write_single_bkp_reg>
            // write_single_bkp_reg()
            break;
 8000d04:	|  +--|--|--|-------- e006      	b.n	8000d14 <CMD_Parser+0x450>
        default:
            break;
 8000d06:	\--|--|--|--|-------> bf00      	nop
 8000d08:	   +--|--|--|-------- e004      	b.n	8000d14 <CMD_Parser+0x450>
            break;
 8000d0a:	   |  \--|--|-------> bf00      	nop
 8000d0c:	   +-----|--|-------- e002      	b.n	8000d14 <CMD_Parser+0x450>
            break;
 8000d0e:	   |     \--|-------> bf00      	nop
 8000d10:	   +--------|-------- e000      	b.n	8000d14 <CMD_Parser+0x450>
            } else break;
 8000d12:	   |        \-------> bf00      	nop
    }
 8000d14:	   \----------------> bf00      	nop
 8000d16:	                      3758      	adds	r7, #88	; 0x58
 8000d18:	                      46bd      	mov	sp, r7
 8000d1a:	                      bd80      	pop	{r7, pc}
 8000d1c:	                      0cb0      	lsrs	r0, r6, #18
 8000d1e:	                      2000      	movs	r0, #0
 8000d20:	                      0b60      	lsrs	r0, r4, #13
 8000d22:	                      2000      	movs	r0, #0
 8000d24:	                      0a84      	lsrs	r4, r0, #10
 8000d26:	                      2000      	movs	r0, #0
 8000d28:	                      0b5a      	lsrs	r2, r3, #13
 8000d2a:	                      2000      	movs	r0, #0
 8000d2c:	                      0948      	lsrs	r0, r1, #5
 8000d2e:	                      2000      	movs	r0, #0
 8000d30:	                      09c8      	lsrs	r0, r1, #7
 8000d32:	                      2000      	movs	r0, #0
 8000d34:	                      1280      	asrs	r0, r0, #10
 8000d36:	                      2000      	movs	r0, #0
 8000d38:	                      1078      	asrs	r0, r7, #1
 8000d3a:	                      2000      	movs	r0, #0
 8000d3c:	                      1178      	asrs	r0, r7, #5
 8000d3e:	                      2000      	movs	r0, #0
 8000d40:	                      117c      	asrs	r4, r7, #5
 8000d42:	                      2000      	movs	r0, #0
 8000d44:	                      127c      	asrs	r4, r7, #9
 8000d46:	                      2000      	movs	r0, #0

08000d48 <init_global_variables>:
#include "global_variables.h"


void init_global_variables(){
 8000d48:	b480      	push	{r7}
 8000d4a:	af00      	add	r7, sp, #0
	// --------- System condition -----------//
	SYSTEM_init_status = SUCCESS;
 8000d4c:	4b08      	ldr	r3, [pc, #32]	; (8000d70 <init_global_variables+0x28>)
 8000d4e:	2200      	movs	r2, #0
 8000d50:	701a      	strb	r2, [r3, #0]
	SYSTEM_I2C_error_flag = SUCCESS;
 8000d52:	4b08      	ldr	r3, [pc, #32]	; (8000d74 <init_global_variables+0x2c>)
 8000d54:	2200      	movs	r2, #0
 8000d56:	701a      	strb	r2, [r3, #0]
	SYSTEM_I2C_error_counter = 0;
 8000d58:	4b07      	ldr	r3, [pc, #28]	; (8000d78 <init_global_variables+0x30>)
 8000d5a:	2200      	movs	r2, #0
 8000d5c:	601a      	str	r2, [r3, #0]

	// ===================================== //

	// --------- ADC -----------//
	battary_voltage = 0;
 8000d5e:	4b07      	ldr	r3, [pc, #28]	; (8000d7c <init_global_variables+0x34>)
 8000d60:	f04f 0200 	mov.w	r2, #0
 8000d64:	601a      	str	r2, [r3, #0]
	//===========================//

	// RTC_struct rtc = {20, 2, 1, 3, 18, 23, 0};


}
 8000d66:	bf00      	nop
 8000d68:	46bd      	mov	sp, r7
 8000d6a:	f85d 7b04 	ldr.w	r7, [sp], #4
 8000d6e:	4770      	bx	lr
 8000d70:	086d      	lsrs	r5, r5, #1
 8000d72:	2000      	movs	r0, #0
 8000d74:	086e      	lsrs	r6, r5, #1
 8000d76:	2000      	movs	r0, #0
 8000d78:	0870      	lsrs	r0, r6, #1
 8000d7a:	2000      	movs	r0, #0
 8000d7c:	0940      	lsrs	r0, r0, #5
 8000d7e:	2000      	movs	r0, #0

08000d80 <__NVIC_EnableIRQ>:
{
 8000d80:	    b480      	push	{r7}
 8000d82:	    b083      	sub	sp, #12
 8000d84:	    af00      	add	r7, sp, #0
 8000d86:	    4603      	mov	r3, r0
 8000d88:	    71fb      	strb	r3, [r7, #7]
  if ((int32_t)(IRQn) >= 0)
 8000d8a:	    f997 3007 	ldrsb.w	r3, [r7, #7]
 8000d8e:	    2b00      	cmp	r3, #0
 8000d90:	/-- db0b      	blt.n	8000daa <__NVIC_EnableIRQ+0x2a>
    NVIC->ISER[(((uint32_t)IRQn) >> 5UL)] = (uint32_t)(1UL << (((uint32_t)IRQn) & 0x1FUL));
 8000d92:	|   79fb      	ldrb	r3, [r7, #7]
 8000d94:	|   f003 021f 	and.w	r2, r3, #31
 8000d98:	|   4907      	ldr	r1, [pc, #28]	; (8000db8 <__NVIC_EnableIRQ+0x38>)
 8000d9a:	|   f997 3007 	ldrsb.w	r3, [r7, #7]
 8000d9e:	|   095b      	lsrs	r3, r3, #5
 8000da0:	|   2001      	movs	r0, #1
 8000da2:	|   fa00 f202 	lsl.w	r2, r0, r2
 8000da6:	|   f841 2023 	str.w	r2, [r1, r3, lsl #2]
}
 8000daa:	\-> bf00      	nop
 8000dac:	    370c      	adds	r7, #12
 8000dae:	    46bd      	mov	sp, r7
 8000db0:	    f85d 7b04 	ldr.w	r7, [sp], #4
 8000db4:	    4770      	bx	lr
 8000db6:	    bf00      	nop
 8000db8:	    e100      	b.n	8000fbc <SEND_TO_SERVER+0x32>
 8000dba:	    e000      	b.n	8000dbe <__NVIC_DisableIRQ+0x2>

08000dbc <__NVIC_DisableIRQ>:
{
 8000dbc:	    b480      	push	{r7}
 8000dbe:	    b083      	sub	sp, #12
 8000dc0:	    af00      	add	r7, sp, #0
 8000dc2:	    4603      	mov	r3, r0
 8000dc4:	    71fb      	strb	r3, [r7, #7]
  if ((int32_t)(IRQn) >= 0)
 8000dc6:	    f997 3007 	ldrsb.w	r3, [r7, #7]
 8000dca:	    2b00      	cmp	r3, #0
 8000dcc:	/-- db12      	blt.n	8000df4 <__NVIC_DisableIRQ+0x38>
    NVIC->ICER[(((uint32_t)IRQn) >> 5UL)] = (uint32_t)(1UL << (((uint32_t)IRQn) & 0x1FUL));
 8000dce:	|   79fb      	ldrb	r3, [r7, #7]
 8000dd0:	|   f003 021f 	and.w	r2, r3, #31
 8000dd4:	|   490a      	ldr	r1, [pc, #40]	; (8000e00 <__NVIC_DisableIRQ+0x44>)
 8000dd6:	|   f997 3007 	ldrsb.w	r3, [r7, #7]
 8000dda:	|   095b      	lsrs	r3, r3, #5
 8000ddc:	|   2001      	movs	r0, #1
 8000dde:	|   fa00 f202 	lsl.w	r2, r0, r2
 8000de2:	|   3320      	adds	r3, #32
 8000de4:	|   f841 2023 	str.w	r2, [r1, r3, lsl #2]
  \details Acts as a special kind of Data Memory Barrier.
           It completes when all explicit memory accesses before this instruction complete.
 */
__STATIC_FORCEINLINE void __DSB(void)
{
  __ASM volatile ("dsb 0xF":::"memory");
 8000de8:	|   f3bf 8f4f 	dsb	sy
}
 8000dec:	|   bf00      	nop
  __ASM volatile ("isb 0xF":::"memory");
 8000dee:	|   f3bf 8f6f 	isb	sy
}
 8000df2:	|   bf00      	nop
}
 8000df4:	\-> bf00      	nop
 8000df6:	    370c      	adds	r7, #12
 8000df8:	    46bd      	mov	sp, r7
 8000dfa:	    f85d 7b04 	ldr.w	r7, [sp], #4
 8000dfe:	    4770      	bx	lr
 8000e00:	    e100      	b.n	8001004 <SEND_TO_SERVER+0x7a>
 8000e02:	    e000      	b.n	8000e06 <LED_BLINK+0x2>

08000e04 <LED_BLINK>:
#include "string.h"
#include "System.h"


volatile time_t current_time;
void LED_BLINK(){
 8000e04:	b580      	push	{r7, lr}
 8000e06:	af00      	add	r7, sp, #0
	gpio_toggle(LED);
 8000e08:	200a      	movs	r0, #10
 8000e0a:	f001 f8ef 	bl	8001fec <gpio_toggle>
	// Delay(1000);
}
 8000e0e:	bf00      	nop
 8000e10:	bd80      	pop	{r7, pc}

uint64_t ReverseBytes(uint64_t value)
{
 8000e12:	e92d 0fb0 	stmdb	sp!, {r4, r5, r7, r8, r9, r10, r11}
 8000e16:	b099      	sub	sp, #100	; 0x64
 8000e18:	af00      	add	r7, sp, #0
 8000e1a:	e9c7 0116 	strd	r0, r1, [r7, #88]	; 0x58
  return (value & 0x00000000000000FFUL) << 56 | (value & 0x000000000000FF00UL) << 40 |
 8000e1e:	e9d7 2316 	ldrd	r2, r3, [r7, #88]	; 0x58
 8000e22:	f04f 0800 	mov.w	r8, #0
 8000e26:	f04f 0900 	mov.w	r9, #0
 8000e2a:	ea4f 6902 	mov.w	r9, r2, lsl #24
 8000e2e:	f04f 0800 	mov.w	r8, #0
 8000e32:	e9d7 2316 	ldrd	r2, r3, [r7, #88]	; 0x58
 8000e36:	f04f 0000 	mov.w	r0, #0
 8000e3a:	f04f 0100 	mov.w	r1, #0
 8000e3e:	0211      	lsls	r1, r2, #8
 8000e40:	2000      	movs	r0, #0
 8000e42:	2400      	movs	r4, #0
 8000e44:	f401 057f 	and.w	r5, r1, #16711680	; 0xff0000
 8000e48:	ea48 0304 	orr.w	r3, r8, r4
 8000e4c:	653b      	str	r3, [r7, #80]	; 0x50
 8000e4e:	ea49 0305 	orr.w	r3, r9, r5
 8000e52:	657b      	str	r3, [r7, #84]	; 0x54
         (value & 0x0000000000FF0000UL) << 24 | (value & 0x00000000FF000000UL) << 8 |
 8000e54:	e9d7 2316 	ldrd	r2, r3, [r7, #88]	; 0x58
 8000e58:	f04f 0000 	mov.w	r0, #0
 8000e5c:	f04f 0100 	mov.w	r1, #0
 8000e60:	0619      	lsls	r1, r3, #24
 8000e62:	ea41 2112 	orr.w	r1, r1, r2, lsr #8
 8000e66:	0610      	lsls	r0, r2, #24
 8000e68:	f04f 0a00 	mov.w	r10, #0
 8000e6c:	f401 4b7f 	and.w	r11, r1, #65280	; 0xff00
  return (value & 0x00000000000000FFUL) << 56 | (value & 0x000000000000FF00UL) << 40 |
 8000e70:	e9d7 1214 	ldrd	r1, r2, [r7, #80]	; 0x50
 8000e74:	460b      	mov	r3, r1
 8000e76:	ea43 030a 	orr.w	r3, r3, r10
 8000e7a:	64bb      	str	r3, [r7, #72]	; 0x48
 8000e7c:	4613      	mov	r3, r2
 8000e7e:	ea43 030b 	orr.w	r3, r3, r11
 8000e82:	64fb      	str	r3, [r7, #76]	; 0x4c
         (value & 0x0000000000FF0000UL) << 24 | (value & 0x00000000FF000000UL) << 8 |
 8000e84:	e9d7 2316 	ldrd	r2, r3, [r7, #88]	; 0x58
 8000e88:	f04f 0000 	mov.w	r0, #0
 8000e8c:	f04f 0100 	mov.w	r1, #0
 8000e90:	0219      	lsls	r1, r3, #8
 8000e92:	ea41 6112 	orr.w	r1, r1, r2, lsr #24
 8000e96:	0210      	lsls	r0, r2, #8
 8000e98:	2300      	movs	r3, #0
 8000e9a:	643b      	str	r3, [r7, #64]	; 0x40
 8000e9c:	f001 03ff 	and.w	r3, r1, #255	; 0xff
 8000ea0:	647b      	str	r3, [r7, #68]	; 0x44
 8000ea2:	e9d7 4512 	ldrd	r4, r5, [r7, #72]	; 0x48
 8000ea6:	4623      	mov	r3, r4
 8000ea8:	e9d7 0110 	ldrd	r0, r1, [r7, #64]	; 0x40
 8000eac:	4602      	mov	r2, r0
 8000eae:	4313      	orrs	r3, r2
 8000eb0:	63bb      	str	r3, [r7, #56]	; 0x38
 8000eb2:	462b      	mov	r3, r5
 8000eb4:	460a      	mov	r2, r1
 8000eb6:	4313      	orrs	r3, r2
 8000eb8:	63fb      	str	r3, [r7, #60]	; 0x3c
         (value & 0x000000FF00000000UL) >> 8 | (value & 0x0000FF0000000000UL) >> 24 |
 8000eba:	e9d7 2316 	ldrd	r2, r3, [r7, #88]	; 0x58
 8000ebe:	f04f 0000 	mov.w	r0, #0
 8000ec2:	f04f 0100 	mov.w	r1, #0
 8000ec6:	0a10      	lsrs	r0, r2, #8
 8000ec8:	ea40 6003 	orr.w	r0, r0, r3, lsl #24
 8000ecc:	0a19      	lsrs	r1, r3, #8
 8000ece:	f000 437f 	and.w	r3, r0, #4278190080	; 0xff000000
 8000ed2:	633b      	str	r3, [r7, #48]	; 0x30
 8000ed4:	2300      	movs	r3, #0
 8000ed6:	637b      	str	r3, [r7, #52]	; 0x34
         (value & 0x0000000000FF0000UL) << 24 | (value & 0x00000000FF000000UL) << 8 |
 8000ed8:	e9d7 450e 	ldrd	r4, r5, [r7, #56]	; 0x38
 8000edc:	4623      	mov	r3, r4
 8000ede:	e9d7 010c 	ldrd	r0, r1, [r7, #48]	; 0x30
 8000ee2:	4602      	mov	r2, r0
 8000ee4:	4313      	orrs	r3, r2
 8000ee6:	62bb      	str	r3, [r7, #40]	; 0x28
 8000ee8:	462b      	mov	r3, r5
 8000eea:	460a      	mov	r2, r1
 8000eec:	4313      	orrs	r3, r2
 8000eee:	62fb      	str	r3, [r7, #44]	; 0x2c
         (value & 0x000000FF00000000UL) >> 8 | (value & 0x0000FF0000000000UL) >> 24 |
 8000ef0:	e9d7 2316 	ldrd	r2, r3, [r7, #88]	; 0x58
 8000ef4:	f04f 0000 	mov.w	r0, #0
 8000ef8:	f04f 0100 	mov.w	r1, #0
 8000efc:	0e10      	lsrs	r0, r2, #24
 8000efe:	ea40 2003 	orr.w	r0, r0, r3, lsl #8
 8000f02:	0e19      	lsrs	r1, r3, #24
 8000f04:	f400 037f 	and.w	r3, r0, #16711680	; 0xff0000
 8000f08:	623b      	str	r3, [r7, #32]
 8000f0a:	2300      	movs	r3, #0
 8000f0c:	627b      	str	r3, [r7, #36]	; 0x24
 8000f0e:	e9d7 450a 	ldrd	r4, r5, [r7, #40]	; 0x28
 8000f12:	4623      	mov	r3, r4
 8000f14:	e9d7 0108 	ldrd	r0, r1, [r7, #32]
 8000f18:	4602      	mov	r2, r0
 8000f1a:	4313      	orrs	r3, r2
 8000f1c:	61bb      	str	r3, [r7, #24]
 8000f1e:	462b      	mov	r3, r5
 8000f20:	460a      	mov	r2, r1
 8000f22:	4313      	orrs	r3, r2
 8000f24:	61fb      	str	r3, [r7, #28]
         (value & 0x00FF000000000000UL) >> 40 | (value & 0xFF00000000000000UL) >> 56;
 8000f26:	e9d7 0116 	ldrd	r0, r1, [r7, #88]	; 0x58
 8000f2a:	f04f 0200 	mov.w	r2, #0
 8000f2e:	f04f 0300 	mov.w	r3, #0
 8000f32:	0a0a      	lsrs	r2, r1, #8
 8000f34:	2300      	movs	r3, #0
 8000f36:	f402 437f 	and.w	r3, r2, #65280	; 0xff00
 8000f3a:	613b      	str	r3, [r7, #16]
 8000f3c:	2300      	movs	r3, #0
 8000f3e:	617b      	str	r3, [r7, #20]
         (value & 0x000000FF00000000UL) >> 8 | (value & 0x0000FF0000000000UL) >> 24 |
 8000f40:	e9d7 4506 	ldrd	r4, r5, [r7, #24]
 8000f44:	4623      	mov	r3, r4
 8000f46:	e9d7 0104 	ldrd	r0, r1, [r7, #16]
 8000f4a:	4602      	mov	r2, r0
 8000f4c:	4313      	orrs	r3, r2
 8000f4e:	60bb      	str	r3, [r7, #8]
 8000f50:	462b      	mov	r3, r5
 8000f52:	460a      	mov	r2, r1
 8000f54:	4313      	orrs	r3, r2
 8000f56:	60fb      	str	r3, [r7, #12]
         (value & 0x00FF000000000000UL) >> 40 | (value & 0xFF00000000000000UL) >> 56;
 8000f58:	e9d7 0116 	ldrd	r0, r1, [r7, #88]	; 0x58
 8000f5c:	f04f 0200 	mov.w	r2, #0
 8000f60:	f04f 0300 	mov.w	r3, #0
 8000f64:	0e0a      	lsrs	r2, r1, #24
 8000f66:	2300      	movs	r3, #0
 8000f68:	e9d7 4502 	ldrd	r4, r5, [r7, #8]
 8000f6c:	4621      	mov	r1, r4
 8000f6e:	4311      	orrs	r1, r2
 8000f70:	6039      	str	r1, [r7, #0]
 8000f72:	4629      	mov	r1, r5
 8000f74:	4319      	orrs	r1, r3
 8000f76:	6079      	str	r1, [r7, #4]
 8000f78:	e9d7 2300 	ldrd	r2, r3, [r7]
}
 8000f7c:	4610      	mov	r0, r2
 8000f7e:	4619      	mov	r1, r3
 8000f80:	3764      	adds	r7, #100	; 0x64
 8000f82:	46bd      	mov	sp, r7
 8000f84:	e8bd 0fb0 	ldmia.w	sp!, {r4, r5, r7, r8, r9, r10, r11}
 8000f88:	4770      	bx	lr

08000f8a <SEND_TO_SERVER>:

void SEND_TO_SERVER(){
 8000f8a:	             b580      	push	{r7, lr}
 8000f8c:	             b0a4      	sub	sp, #144	; 0x90
 8000f8e:	             af00      	add	r7, sp, #0
    //
    if(SX1268.self_addr == 1){
 8000f90:	             4ba3      	ldr	r3, [pc, #652]	; (8001220 <SEND_TO_SERVER+0x296>)
 8000f92:	             7c5b      	ldrb	r3, [r3, #17]
 8000f94:	             2b01      	cmp	r3, #1
 8000f96:	/----------- f040 813f 	bne.w	8001218 <SEND_TO_SERVER+0x28e>
        sim7000g = (GSM){
 8000f9a:	|            4ba2      	ldr	r3, [pc, #648]	; (8001224 <SEND_TO_SERVER+0x29a>)
 8000f9c:	|            4618      	mov	r0, r3
 8000f9e:	|            2380      	movs	r3, #128	; 0x80
 8000fa0:	|            461a      	mov	r2, r3
 8000fa2:	|            2100      	movs	r1, #0
 8000fa4:	|            f008 fd1c 	bl	80099e0 <memset>
 8000fa8:	|            4b9e      	ldr	r3, [pc, #632]	; (8001224 <SEND_TO_SERVER+0x29a>)
 8000faa:	|            221c      	movs	r2, #28
 8000fac:	|            701a      	strb	r2, [r3, #0]
 8000fae:	|            4b9d      	ldr	r3, [pc, #628]	; (8001224 <SEND_TO_SERVER+0x29a>)
 8000fb0:	|            221b      	movs	r2, #27
 8000fb2:	|            705a      	strb	r2, [r3, #1]
 8000fb4:	|            4b9b      	ldr	r3, [pc, #620]	; (8001224 <SEND_TO_SERVER+0x29a>)
 8000fb6:	|            220c      	movs	r2, #12
 8000fb8:	|            711a      	strb	r2, [r3, #4]
 8000fba:	|            4b9a      	ldr	r3, [pc, #616]	; (8001224 <SEND_TO_SERVER+0x29a>)
 8000fbc:	|            220d      	movs	r2, #13
 8000fbe:	|            715a      	strb	r2, [r3, #5]
 8000fc0:	|            4b98      	ldr	r3, [pc, #608]	; (8001224 <SEND_TO_SERVER+0x29a>)
 8000fc2:	|            220b      	movs	r2, #11
 8000fc4:	|            719a      	strb	r2, [r3, #6]
 8000fc6:	|            4b97      	ldr	r3, [pc, #604]	; (8001224 <SEND_TO_SERVER+0x29a>)
 8000fc8:	|            222e      	movs	r2, #46	; 0x2e
 8000fca:	|            71da      	strb	r2, [r3, #7]
 8000fcc:	|            4b95      	ldr	r3, [pc, #596]	; (8001224 <SEND_TO_SERVER+0x29a>)
 8000fce:	|            220b      	movs	r2, #11
 8000fd0:	|            725a      	strb	r2, [r3, #9]
 8000fd2:	|            4b94      	ldr	r3, [pc, #592]	; (8001224 <SEND_TO_SERVER+0x29a>)
 8000fd4:	|            220b      	movs	r2, #11
 8000fd6:	|            729a      	strb	r2, [r3, #10]
 8000fd8:	|            4b92      	ldr	r3, [pc, #584]	; (8001224 <SEND_TO_SERVER+0x29a>)
 8000fda:	|            4a93      	ldr	r2, [pc, #588]	; (8001228 <SEND_TO_SERVER+0x29e>)
 8000fdc:	|            611a      	str	r2, [r3, #16]
                .__cts_af_pin = uninitialized,
                .__rts_af_pin = uninitialized
            },
            .uart = USART3
        };
        NVIC_DisableIRQ(EXTI9_5_IRQn);
 8000fde:	|            2017      	movs	r0, #23
 8000fe0:	|            f7ff feec 	bl	8000dbc <__NVIC_DisableIRQ>
        uint8_t gsm_init_flag = GSM_Init(&sim7000g);
 8000fe4:	|            488f      	ldr	r0, [pc, #572]	; (8001224 <SEND_TO_SERVER+0x29a>)
 8000fe6:	|            f005 faa7 	bl	8006538 <GSM_Init>
 8000fea:	|            4603      	mov	r3, r0
 8000fec:	|            f887 308f 	strb.w	r3, [r7, #143]	; 0x8f
        uint16_t gs1_buf_counter = buffer_ptr;
 8000ff0:	|            4b8e      	ldr	r3, [pc, #568]	; (800122c <SEND_TO_SERVER+0x2a2>)
 8000ff2:	|            881b      	ldrh	r3, [r3, #0]
 8000ff4:	|            f8a7 308c 	strh.w	r3, [r7, #140]	; 0x8c
        if(buffer_ptr + gs2_buf_ptr < sizeof(data_buffer)){
 8000ff8:	|            4b8c      	ldr	r3, [pc, #560]	; (800122c <SEND_TO_SERVER+0x2a2>)
 8000ffa:	|            881b      	ldrh	r3, [r3, #0]
 8000ffc:	|            461a      	mov	r2, r3
 8000ffe:	|            4b8c      	ldr	r3, [pc, #560]	; (8001230 <SEND_TO_SERVER+0x2a6>)
 8001000:	|            781b      	ldrb	r3, [r3, #0]
 8001002:	|            4413      	add	r3, r2
 8001004:	|            f5b3 7f40 	cmp.w	r3, #768	; 0x300
 8001008:	|        /-- d232      	bcs.n	8001070 <SEND_TO_SERVER+0xe6>
            uint8_t data[3] = {0x02, gs2_buf_ptr >> 8, gs2_buf_ptr & 0xFF};
 800100a:	|        |   2302      	movs	r3, #2
 800100c:	|        |   f887 3088 	strb.w	r3, [r7, #136]	; 0x88
 8001010:	|        |   4b87      	ldr	r3, [pc, #540]	; (8001230 <SEND_TO_SERVER+0x2a6>)
 8001012:	|        |   781b      	ldrb	r3, [r3, #0]
 8001014:	|        |   121b      	asrs	r3, r3, #8
 8001016:	|        |   b2db      	uxtb	r3, r3
 8001018:	|        |   f887 3089 	strb.w	r3, [r7, #137]	; 0x89
 800101c:	|        |   4b84      	ldr	r3, [pc, #528]	; (8001230 <SEND_TO_SERVER+0x2a6>)
 800101e:	|        |   781b      	ldrb	r3, [r3, #0]
 8001020:	|        |   f887 308a 	strb.w	r3, [r7, #138]	; 0x8a
            memcpy(data_buffer + buffer_ptr, (uint8_t *)(&data), sizeof(data));
 8001024:	|        |   4b81      	ldr	r3, [pc, #516]	; (800122c <SEND_TO_SERVER+0x2a2>)
 8001026:	|        |   881b      	ldrh	r3, [r3, #0]
 8001028:	|        |   461a      	mov	r2, r3
 800102a:	|        |   4b82      	ldr	r3, [pc, #520]	; (8001234 <SEND_TO_SERVER+0x2aa>)
 800102c:	|        |   4413      	add	r3, r2
 800102e:	|        |   461a      	mov	r2, r3
 8001030:	|        |   f107 0388 	add.w	r3, r7, #136	; 0x88
 8001034:	|        |   8819      	ldrh	r1, [r3, #0]
 8001036:	|        |   789b      	ldrb	r3, [r3, #2]
 8001038:	|        |   8011      	strh	r1, [r2, #0]
 800103a:	|        |   7093      	strb	r3, [r2, #2]
            buffer_ptr += sizeof(data);
 800103c:	|        |   4b7b      	ldr	r3, [pc, #492]	; (800122c <SEND_TO_SERVER+0x2a2>)
 800103e:	|        |   881b      	ldrh	r3, [r3, #0]
 8001040:	|        |   3303      	adds	r3, #3
 8001042:	|        |   b29a      	uxth	r2, r3
 8001044:	|        |   4b79      	ldr	r3, [pc, #484]	; (800122c <SEND_TO_SERVER+0x2a2>)
 8001046:	|        |   801a      	strh	r2, [r3, #0]
            memcpy(data_buffer + buffer_ptr, (uint8_t *)(&gs2_buffer), gs2_buf_ptr);
 8001048:	|        |   4b78      	ldr	r3, [pc, #480]	; (800122c <SEND_TO_SERVER+0x2a2>)
 800104a:	|        |   881b      	ldrh	r3, [r3, #0]
 800104c:	|        |   461a      	mov	r2, r3
 800104e:	|        |   4b79      	ldr	r3, [pc, #484]	; (8001234 <SEND_TO_SERVER+0x2aa>)
 8001050:	|        |   4413      	add	r3, r2
 8001052:	|        |   4a77      	ldr	r2, [pc, #476]	; (8001230 <SEND_TO_SERVER+0x2a6>)
 8001054:	|        |   7812      	ldrb	r2, [r2, #0]
 8001056:	|        |   4978      	ldr	r1, [pc, #480]	; (8001238 <SEND_TO_SERVER+0x2ae>)
 8001058:	|        |   4618      	mov	r0, r3
 800105a:	|        |   f008 fd01 	bl	8009a60 <memcpy>
            buffer_ptr += gs2_buf_ptr;
 800105e:	|        |   4b74      	ldr	r3, [pc, #464]	; (8001230 <SEND_TO_SERVER+0x2a6>)
 8001060:	|        |   781b      	ldrb	r3, [r3, #0]
 8001062:	|        |   b29a      	uxth	r2, r3
 8001064:	|        |   4b71      	ldr	r3, [pc, #452]	; (800122c <SEND_TO_SERVER+0x2a2>)
 8001066:	|        |   881b      	ldrh	r3, [r3, #0]
 8001068:	|        |   4413      	add	r3, r2
 800106a:	|        |   b29a      	uxth	r2, r3
 800106c:	|        |   4b6f      	ldr	r3, [pc, #444]	; (800122c <SEND_TO_SERVER+0x2a2>)
 800106e:	|        |   801a      	strh	r2, [r3, #0]
        }

        if(buffer_ptr + gs3_buf_ptr < sizeof(data_buffer)){
 8001070:	|        \-> 4b6e      	ldr	r3, [pc, #440]	; (800122c <SEND_TO_SERVER+0x2a2>)
 8001072:	|            881b      	ldrh	r3, [r3, #0]
 8001074:	|            461a      	mov	r2, r3
 8001076:	|            4b71      	ldr	r3, [pc, #452]	; (800123c <SEND_TO_SERVER+0x2b2>)
 8001078:	|            781b      	ldrb	r3, [r3, #0]
 800107a:	|            4413      	add	r3, r2
 800107c:	|            f5b3 7f40 	cmp.w	r3, #768	; 0x300
 8001080:	|        /-- d232      	bcs.n	80010e8 <SEND_TO_SERVER+0x15e>
            uint8_t data[3] = {0x03, gs3_buf_ptr >> 8, gs3_buf_ptr & 0xFF};
 8001082:	|        |   2303      	movs	r3, #3
 8001084:	|        |   f887 3084 	strb.w	r3, [r7, #132]	; 0x84
 8001088:	|        |   4b6c      	ldr	r3, [pc, #432]	; (800123c <SEND_TO_SERVER+0x2b2>)
 800108a:	|        |   781b      	ldrb	r3, [r3, #0]
 800108c:	|        |   121b      	asrs	r3, r3, #8
 800108e:	|        |   b2db      	uxtb	r3, r3
 8001090:	|        |   f887 3085 	strb.w	r3, [r7, #133]	; 0x85
 8001094:	|        |   4b69      	ldr	r3, [pc, #420]	; (800123c <SEND_TO_SERVER+0x2b2>)
 8001096:	|        |   781b      	ldrb	r3, [r3, #0]
 8001098:	|        |   f887 3086 	strb.w	r3, [r7, #134]	; 0x86
            memcpy(data_buffer + buffer_ptr, (uint8_t *)(&data), sizeof(data));
 800109c:	|        |   4b63      	ldr	r3, [pc, #396]	; (800122c <SEND_TO_SERVER+0x2a2>)
 800109e:	|        |   881b      	ldrh	r3, [r3, #0]
 80010a0:	|        |   461a      	mov	r2, r3
 80010a2:	|        |   4b64      	ldr	r3, [pc, #400]	; (8001234 <SEND_TO_SERVER+0x2aa>)
 80010a4:	|        |   4413      	add	r3, r2
 80010a6:	|        |   461a      	mov	r2, r3
 80010a8:	|        |   f107 0384 	add.w	r3, r7, #132	; 0x84
 80010ac:	|        |   8819      	ldrh	r1, [r3, #0]
 80010ae:	|        |   789b      	ldrb	r3, [r3, #2]
 80010b0:	|        |   8011      	strh	r1, [r2, #0]
 80010b2:	|        |   7093      	strb	r3, [r2, #2]
            buffer_ptr += sizeof(data);
 80010b4:	|        |   4b5d      	ldr	r3, [pc, #372]	; (800122c <SEND_TO_SERVER+0x2a2>)
 80010b6:	|        |   881b      	ldrh	r3, [r3, #0]
 80010b8:	|        |   3303      	adds	r3, #3
 80010ba:	|        |   b29a      	uxth	r2, r3
 80010bc:	|        |   4b5b      	ldr	r3, [pc, #364]	; (800122c <SEND_TO_SERVER+0x2a2>)
 80010be:	|        |   801a      	strh	r2, [r3, #0]
            memcpy(data_buffer + buffer_ptr, (uint8_t *)(&gs3_buffer), gs3_buf_ptr);
 80010c0:	|        |   4b5a      	ldr	r3, [pc, #360]	; (800122c <SEND_TO_SERVER+0x2a2>)
 80010c2:	|        |   881b      	ldrh	r3, [r3, #0]
 80010c4:	|        |   461a      	mov	r2, r3
 80010c6:	|        |   4b5b      	ldr	r3, [pc, #364]	; (8001234 <SEND_TO_SERVER+0x2aa>)
 80010c8:	|        |   4413      	add	r3, r2
 80010ca:	|        |   4a5c      	ldr	r2, [pc, #368]	; (800123c <SEND_TO_SERVER+0x2b2>)
 80010cc:	|        |   7812      	ldrb	r2, [r2, #0]
 80010ce:	|        |   495c      	ldr	r1, [pc, #368]	; (8001240 <SEND_TO_SERVER+0x2b6>)
 80010d0:	|        |   4618      	mov	r0, r3
 80010d2:	|        |   f008 fcc5 	bl	8009a60 <memcpy>
            buffer_ptr += gs3_buf_ptr;
 80010d6:	|        |   4b59      	ldr	r3, [pc, #356]	; (800123c <SEND_TO_SERVER+0x2b2>)
 80010d8:	|        |   781b      	ldrb	r3, [r3, #0]
 80010da:	|        |   b29a      	uxth	r2, r3
 80010dc:	|        |   4b53      	ldr	r3, [pc, #332]	; (800122c <SEND_TO_SERVER+0x2a2>)
 80010de:	|        |   881b      	ldrh	r3, [r3, #0]
 80010e0:	|        |   4413      	add	r3, r2
 80010e2:	|        |   b29a      	uxth	r2, r3
 80010e4:	|        |   4b51      	ldr	r3, [pc, #324]	; (800122c <SEND_TO_SERVER+0x2a2>)
 80010e6:	|        |   801a      	strh	r2, [r3, #0]
        }

        GSM_CheckSignal(&sim7000g);
 80010e8:	|        \-> 484e      	ldr	r0, [pc, #312]	; (8001224 <SEND_TO_SERVER+0x29a>)
 80010ea:	|            f005 fb2f 	bl	800674c <GSM_CheckSignal>
        GSM_GetVBAT(&sim7000g);
 80010ee:	|            484d      	ldr	r0, [pc, #308]	; (8001224 <SEND_TO_SERVER+0x29a>)
 80010f0:	|            f005 fb3a 	bl	8006768 <GSM_GetVBAT>
        if(buffer_ptr + 3 < sizeof(data_buffer)){
 80010f4:	|            4b4d      	ldr	r3, [pc, #308]	; (800122c <SEND_TO_SERVER+0x2a2>)
 80010f6:	|            881b      	ldrh	r3, [r3, #0]
 80010f8:	|            3303      	adds	r3, #3
 80010fa:	|            f5b3 7f40 	cmp.w	r3, #768	; 0x300
 80010fe:	|        /-- d216      	bcs.n	800112e <SEND_TO_SERVER+0x1a4>
            memcpy(data_buffer + buffer_ptr, (uint8_t *)(&sim7000g.vbat), 2);
 8001100:	|        |   4b4a      	ldr	r3, [pc, #296]	; (800122c <SEND_TO_SERVER+0x2a2>)
 8001102:	|        |   881b      	ldrh	r3, [r3, #0]
 8001104:	|        |   461a      	mov	r2, r3
 8001106:	|        |   4b4b      	ldr	r3, [pc, #300]	; (8001234 <SEND_TO_SERVER+0x2aa>)
 8001108:	|        |   4413      	add	r3, r2
 800110a:	|        |   4a46      	ldr	r2, [pc, #280]	; (8001224 <SEND_TO_SERVER+0x29a>)
 800110c:	|        |   8bd2      	ldrh	r2, [r2, #30]
 800110e:	|        |   801a      	strh	r2, [r3, #0]
            memcpy(data_buffer + buffer_ptr + 2, &sim7000g.signal_level, 1);
 8001110:	|        |   4b46      	ldr	r3, [pc, #280]	; (800122c <SEND_TO_SERVER+0x2a2>)
 8001112:	|        |   881b      	ldrh	r3, [r3, #0]
 8001114:	|        |   3302      	adds	r3, #2
 8001116:	|        |   4a47      	ldr	r2, [pc, #284]	; (8001234 <SEND_TO_SERVER+0x2aa>)
 8001118:	|        |   4413      	add	r3, r2
 800111a:	|        |   4a42      	ldr	r2, [pc, #264]	; (8001224 <SEND_TO_SERVER+0x29a>)
 800111c:	|        |   f892 2020 	ldrb.w	r2, [r2, #32]
 8001120:	|        |   701a      	strb	r2, [r3, #0]
            buffer_ptr += 3;
 8001122:	|        |   4b42      	ldr	r3, [pc, #264]	; (800122c <SEND_TO_SERVER+0x2a2>)
 8001124:	|        |   881b      	ldrh	r3, [r3, #0]
 8001126:	|        |   3303      	adds	r3, #3
 8001128:	|        |   b29a      	uxth	r2, r3
 800112a:	|        |   4b40      	ldr	r3, [pc, #256]	; (800122c <SEND_TO_SERVER+0x2a2>)
 800112c:	|        |   801a      	strh	r2, [r3, #0]
        }
        memcpy(data_buffer + 4, (uint8_t *)(&buffer_ptr), 2);
 800112e:	|        \-> 4a45      	ldr	r2, [pc, #276]	; (8001244 <SEND_TO_SERVER+0x2ba>)
 8001130:	|            4b3e      	ldr	r3, [pc, #248]	; (800122c <SEND_TO_SERVER+0x2a2>)
 8001132:	|            881b      	ldrh	r3, [r3, #0]
 8001134:	|            8013      	strh	r3, [r2, #0]
        memcpy(data_buffer + 6, (uint8_t *)(&gs1_buf_counter), 2);
 8001136:	|            4a44      	ldr	r2, [pc, #272]	; (8001248 <SEND_TO_SERVER+0x2be>)
 8001138:	|            f8b7 308c 	ldrh.w	r3, [r7, #140]	; 0x8c
 800113c:	|            8013      	strh	r3, [r2, #0]
        Delay(1700);
 800113e:	|            f240 60a4 	movw	r0, #1700	; 0x6a4
 8001142:	|            f004 fd47 	bl	8005bd4 <Delay>
        uint8_t gprs_init_flag = GSM_InitGPRS(&sim7000g);
 8001146:	|            4837      	ldr	r0, [pc, #220]	; (8001224 <SEND_TO_SERVER+0x29a>)
 8001148:	|            f005 fb78 	bl	800683c <GSM_InitGPRS>
 800114c:	|            4603      	mov	r3, r0
 800114e:	|            f887 308e 	strb.w	r3, [r7, #142]	; 0x8e
        Delay(700);
 8001152:	|            f44f 702f 	mov.w	r0, #700	; 0x2bc
 8001156:	|            f004 fd3d 	bl	8005bd4 <Delay>
        if(gprs_init_flag == 0){
 800115a:	|            f897 308e 	ldrb.w	r3, [r7, #142]	; 0x8e
 800115e:	|            2b00      	cmp	r3, #0
 8001160:	|  /-------- d14b      	bne.n	80011fa <SEND_TO_SERVER+0x270>
            GSM_OpenConnection(&sim7000g, "hirundo.ru", "8083");
 8001162:	|  |         4a3a      	ldr	r2, [pc, #232]	; (800124c <SEND_TO_SERVER+0x2c2>)
 8001164:	|  |         493a      	ldr	r1, [pc, #232]	; (8001250 <SEND_TO_SERVER+0x2c6>)
 8001166:	|  |         482f      	ldr	r0, [pc, #188]	; (8001224 <SEND_TO_SERVER+0x29a>)
 8001168:	|  |         f005 fc18 	bl	800699c <GSM_OpenConnection>
            if(sim7000g.ip_status==GPRS_CONNECT_OK){
 800116c:	|  |         4b2d      	ldr	r3, [pc, #180]	; (8001224 <SEND_TO_SERVER+0x29a>)
 800116e:	|  |         f893 3070 	ldrb.w	r3, [r3, #112]	; 0x70
 8001172:	|  |         2b05      	cmp	r3, #5
 8001174:	|  |  /----- d13e      	bne.n	80011f4 <SEND_TO_SERVER+0x26a>
                // GSM_SendTCP(&sim7000g, "hello", 5);
                GSM_WaitTCPServerConnection(&sim7000g, 4500);
 8001176:	|  |  |      f241 1194 	movw	r1, #4500	; 0x1194
 800117a:	|  |  |      482a      	ldr	r0, [pc, #168]	; (8001224 <SEND_TO_SERVER+0x29a>)
 800117c:	|  |  |      f005 fd0e 	bl	8006b9c <GSM_WaitTCPServerConnection>
                GSM_SendTCP(&sim7000g, (char*)data_buffer, buffer_ptr);
 8001180:	|  |  |      4b2a      	ldr	r3, [pc, #168]	; (800122c <SEND_TO_SERVER+0x2a2>)
 8001182:	|  |  |      881b      	ldrh	r3, [r3, #0]
 8001184:	|  |  |      461a      	mov	r2, r3
 8001186:	|  |  |      492b      	ldr	r1, [pc, #172]	; (8001234 <SEND_TO_SERVER+0x2aa>)
 8001188:	|  |  |      4826      	ldr	r0, [pc, #152]	; (8001224 <SEND_TO_SERVER+0x29a>)
 800118a:	|  |  |      f005 fc59 	bl	8006a40 <GSM_SendTCP>
                if(GSM_WaitTCPServerAcknowledge(&sim7000g, 4500)){
 800118e:	|  |  |      f241 1194 	movw	r1, #4500	; 0x1194
 8001192:	|  |  |      4824      	ldr	r0, [pc, #144]	; (8001224 <SEND_TO_SERVER+0x29a>)
 8001194:	|  |  |      f005 fcdc 	bl	8006b50 <GSM_WaitTCPServerAcknowledge>
 8001198:	|  |  |      4603      	mov	r3, r0
 800119a:	|  |  |      2b00      	cmp	r3, #0
 800119c:	|  |  |  /-- d026      	beq.n	80011ec <SEND_TO_SERVER+0x262>
                    GSM_CloseConnections(&sim7000g);
 800119e:	|  |  |  |   4821      	ldr	r0, [pc, #132]	; (8001224 <SEND_TO_SERVER+0x29a>)
 80011a0:	|  |  |  |   f005 fc9e 	bl	8006ae0 <GSM_CloseConnections>
                    Delay(500);
 80011a4:	|  |  |  |   f44f 70fa 	mov.w	r0, #500	; 0x1f4
 80011a8:	|  |  |  |   f004 fd14 	bl	8005bd4 <Delay>
                    gprs_init_flag = GSM_InitGPRS(&sim7000g);
 80011ac:	|  |  |  |   481d      	ldr	r0, [pc, #116]	; (8001224 <SEND_TO_SERVER+0x29a>)
 80011ae:	|  |  |  |   f005 fb45 	bl	800683c <GSM_InitGPRS>
 80011b2:	|  |  |  |   4603      	mov	r3, r0
 80011b4:	|  |  |  |   f887 308e 	strb.w	r3, [r7, #142]	; 0x8e
                    Delay(500);
 80011b8:	|  |  |  |   f44f 70fa 	mov.w	r0, #500	; 0x1f4
 80011bc:	|  |  |  |   f004 fd0a 	bl	8005bd4 <Delay>
                    GSM_OpenConnection(&sim7000g, "hirundo.ru", "8083");
 80011c0:	|  |  |  |   4a22      	ldr	r2, [pc, #136]	; (800124c <SEND_TO_SERVER+0x2c2>)
 80011c2:	|  |  |  |   4923      	ldr	r1, [pc, #140]	; (8001250 <SEND_TO_SERVER+0x2c6>)
 80011c4:	|  |  |  |   4817      	ldr	r0, [pc, #92]	; (8001224 <SEND_TO_SERVER+0x29a>)
 80011c6:	|  |  |  |   f005 fbe9 	bl	800699c <GSM_OpenConnection>
                    GSM_WaitTCPServerConnection(&sim7000g, 4500);
 80011ca:	|  |  |  |   f241 1194 	movw	r1, #4500	; 0x1194
 80011ce:	|  |  |  |   4815      	ldr	r0, [pc, #84]	; (8001224 <SEND_TO_SERVER+0x29a>)
 80011d0:	|  |  |  |   f005 fce4 	bl	8006b9c <GSM_WaitTCPServerConnection>
                    GSM_SendTCP(&sim7000g, (char*)data_buffer, buffer_ptr);
 80011d4:	|  |  |  |   4b15      	ldr	r3, [pc, #84]	; (800122c <SEND_TO_SERVER+0x2a2>)
 80011d6:	|  |  |  |   881b      	ldrh	r3, [r3, #0]
 80011d8:	|  |  |  |   461a      	mov	r2, r3
 80011da:	|  |  |  |   4916      	ldr	r1, [pc, #88]	; (8001234 <SEND_TO_SERVER+0x2aa>)
 80011dc:	|  |  |  |   4811      	ldr	r0, [pc, #68]	; (8001224 <SEND_TO_SERVER+0x29a>)
 80011de:	|  |  |  |   f005 fc2f 	bl	8006a40 <GSM_SendTCP>
                    GSM_WaitTCPServerAcknowledge(&sim7000g, 4500);
 80011e2:	|  |  |  |   f241 1194 	movw	r1, #4500	; 0x1194
 80011e6:	|  |  |  |   480f      	ldr	r0, [pc, #60]	; (8001224 <SEND_TO_SERVER+0x29a>)
 80011e8:	|  |  |  |   f005 fcb2 	bl	8006b50 <GSM_WaitTCPServerAcknowledge>
                }
                GSM_CloseConnections(&sim7000g);
 80011ec:	|  |  |  \-> 480d      	ldr	r0, [pc, #52]	; (8001224 <SEND_TO_SERVER+0x29a>)
 80011ee:	|  |  |      f005 fc77 	bl	8006ae0 <GSM_CloseConnections>
 80011f2:	|  +--|----- e002      	b.n	80011fa <SEND_TO_SERVER+0x270>
            }
            else GSM_CloseConnections(&sim7000g);
 80011f4:	|  |  \----> 480b      	ldr	r0, [pc, #44]	; (8001224 <SEND_TO_SERVER+0x29a>)
 80011f6:	|  |         f005 fc73 	bl	8006ae0 <GSM_CloseConnections>
        }
        GSM_PowerOFF(&sim7000g);
 80011fa:	|  \-------> 480a      	ldr	r0, [pc, #40]	; (8001224 <SEND_TO_SERVER+0x29a>)
 80011fc:	|            f005 fb10 	bl	8006820 <GSM_PowerOFF>
        buffer_ptr = 0;
 8001200:	|            4b0a      	ldr	r3, [pc, #40]	; (800122c <SEND_TO_SERVER+0x2a2>)
 8001202:	|            2200      	movs	r2, #0
 8001204:	|            801a      	strh	r2, [r3, #0]
        gs2_buf_ptr = 0;
 8001206:	|            4b0a      	ldr	r3, [pc, #40]	; (8001230 <SEND_TO_SERVER+0x2a6>)
 8001208:	|            2200      	movs	r2, #0
 800120a:	|            701a      	strb	r2, [r3, #0]
        gs3_buf_ptr = 0;
 800120c:	|            4b0b      	ldr	r3, [pc, #44]	; (800123c <SEND_TO_SERVER+0x2b2>)
 800120e:	|            2200      	movs	r2, #0
 8001210:	|            701a      	strb	r2, [r3, #0]
        // EXTI->PR1 |= EXTI_PR1_PIF6;
        NVIC_EnableIRQ(EXTI9_5_IRQn);
 8001212:	|            2017      	movs	r0, #23
 8001214:	|            f7ff fdb4 	bl	8000d80 <__NVIC_EnableIRQ>
    }
}
 8001218:	\----------> bf00      	nop
 800121a:	             3790      	adds	r7, #144	; 0x90
 800121c:	             46bd      	mov	sp, r7
 800121e:	             bd80      	pop	{r7, pc}
 8001220:	             09c8      	lsrs	r0, r1, #7
 8001222:	             2000      	movs	r0, #0
 8001224:	             0948      	lsrs	r0, r1, #5
 8001226:	             2000      	movs	r0, #0
 8001228:	             4800      	ldr	r0, [pc, #0]	; (800122c <SEND_TO_SERVER+0x2a2>)
 800122a:	             4000      	ands	r0, r0
 800122c:	             1074      	asrs	r4, r6, #1
 800122e:	             2000      	movs	r0, #0
 8001230:	             1178      	asrs	r0, r7, #5
 8001232:	             2000      	movs	r0, #0
 8001234:	             0d74      	lsrs	r4, r6, #21
 8001236:	             2000      	movs	r0, #0
 8001238:	             1078      	asrs	r0, r7, #1
 800123a:	             2000      	movs	r0, #0
 800123c:	             127c      	asrs	r4, r7, #9
 800123e:	             2000      	movs	r0, #0
 8001240:	             117c      	asrs	r4, r7, #5
 8001242:	             2000      	movs	r0, #0
 8001244:	             0d78      	lsrs	r0, r7, #21
 8001246:	             2000      	movs	r0, #0
 8001248:	             0d7a      	lsrs	r2, r7, #21
 800124a:	             2000      	movs	r0, #0
 800124c:	             aed8      	add	r6, sp, #864	; 0x360
 800124e:	             0800      	lsrs	r0, r0, #32
 8001250:	             aee0      	add	r6, sp, #896	; 0x380
 8001252:	             0800      	lsrs	r0, r0, #32

08001254 <TemperatureSensorsMeasure>:
void TemperatureSensorsMeasure(){
 8001254:	          b590      	push	{r4, r7, lr}
 8001256:	          b089      	sub	sp, #36	; 0x24
 8001258:	          af00      	add	r7, sp, #0
    OneWireStatus status;
    DS18B20_StartTempMeas(&ow);
 800125a:	          482e      	ldr	r0, [pc, #184]	; (8001314 <TemperatureSensorsMeasure+0xc0>)
 800125c:	          f005 f87e 	bl	800635c <DS18B20_StartTempMeas>
    for(uint8_t i = 0; i < 12; i++){
 8001260:	          2300      	movs	r3, #0
 8001262:	          77fb      	strb	r3, [r7, #31]
 8001264:	   /----- e04e      	b.n	8001304 <TemperatureSensorsMeasure+0xb0>
        if(SELF_ID == 1){
            uint64_t data = ReverseBytes(gs1_ow_nums[i]);
 8001266:	/--|----> 7ffb      	ldrb	r3, [r7, #31]
 8001268:	|  |      4a2b      	ldr	r2, [pc, #172]	; (8001318 <TemperatureSensorsMeasure+0xc4>)
 800126a:	|  |      00db      	lsls	r3, r3, #3
 800126c:	|  |      4413      	add	r3, r2
 800126e:	|  |      e9d3 2300 	ldrd	r2, r3, [r3]
 8001272:	|  |      4610      	mov	r0, r2
 8001274:	|  |      4619      	mov	r1, r3
 8001276:	|  |      f7ff f835 	bl	80002e4 <ReverseBytes>
 800127a:	|  |      4602      	mov	r2, r0
 800127c:	|  |      460b      	mov	r3, r1
 800127e:	|  |      e9c7 2304 	strd	r2, r3, [r7, #16]
            status = OneWire_MatchRom(&ow, (RomCode*)(&data));
 8001282:	|  |      f107 0310 	add.w	r3, r7, #16
 8001286:	|  |      4619      	mov	r1, r3
 8001288:	|  |      4822      	ldr	r0, [pc, #136]	; (8001314 <TemperatureSensorsMeasure+0xc0>)
 800128a:	|  |      f001 ff37 	bl	80030fc <OneWire_MatchRom>
 800128e:	|  |      4603      	mov	r3, r0
 8001290:	|  |      77bb      	strb	r3, [r7, #30]
            status = OneWire_MatchRom(&ow, (RomCode*)(&data));
        } else if(SELF_ID == 3){
            uint64_t data = ReverseBytes(gs3_ow_nums[i]);
            status = OneWire_MatchRom(&ow, (RomCode*)(&data));
        }
        if(status == ONE_WIRE_OK){
 8001292:	|  |      7fbb      	ldrb	r3, [r7, #30]
 8001294:	|  |      2b00      	cmp	r3, #0
 8001296:	|  |  /-- d132      	bne.n	80012fe <TemperatureSensorsMeasure+0xaa>
            OneWire_Write(&ow, DS18B20_READ_SCRATCHPAD);
 8001298:	|  |  |   21be      	movs	r1, #190	; 0xbe
 800129a:	|  |  |   481e      	ldr	r0, [pc, #120]	; (8001314 <TemperatureSensorsMeasure+0xc0>)
 800129c:	|  |  |   f001 fd77 	bl	8002d8e <OneWire_Write>
            OneWire_ReadArray(&ow, (uint8_t *)(&(sensors[i].scratchpad)), 9);
 80012a0:	|  |  |   7ffa      	ldrb	r2, [r7, #31]
 80012a2:	|  |  |   4613      	mov	r3, r2
 80012a4:	|  |  |   00db      	lsls	r3, r3, #3
 80012a6:	|  |  |   1a9b      	subs	r3, r3, r2
 80012a8:	|  |  |   009b      	lsls	r3, r3, #2
 80012aa:	|  |  |   3308      	adds	r3, #8
 80012ac:	|  |  |   4a1b      	ldr	r2, [pc, #108]	; (800131c <TemperatureSensorsMeasure+0xc8>)
 80012ae:	|  |  |   4413      	add	r3, r2
 80012b0:	|  |  |   3304      	adds	r3, #4
 80012b2:	|  |  |   2209      	movs	r2, #9
 80012b4:	|  |  |   4619      	mov	r1, r3
 80012b6:	|  |  |   4817      	ldr	r0, [pc, #92]	; (8001314 <TemperatureSensorsMeasure+0xc0>)
 80012b8:	|  |  |   f001 fd4b 	bl	8002d52 <OneWire_ReadArray>
            sensors[i].temperature = (uint32_t)(sensors[i].scratchpad.temperature) * 0.0625;
 80012bc:	|  |  |   7ffa      	ldrb	r2, [r7, #31]
 80012be:	|  |  |   4917      	ldr	r1, [pc, #92]	; (800131c <TemperatureSensorsMeasure+0xc8>)
 80012c0:	|  |  |   4613      	mov	r3, r2
 80012c2:	|  |  |   00db      	lsls	r3, r3, #3
 80012c4:	|  |  |   1a9b      	subs	r3, r3, r2
 80012c6:	|  |  |   009b      	lsls	r3, r3, #2
 80012c8:	|  |  |   440b      	add	r3, r1
 80012ca:	|  |  |   330c      	adds	r3, #12
 80012cc:	|  |  |   881b      	ldrh	r3, [r3, #0]
 80012ce:	|  |  |   4618      	mov	r0, r3
 80012d0:	|  |  |   f007 ffd0 	bl	8009274 <__aeabi_ui2d>
 80012d4:	|  |  |   f04f 0200 	mov.w	r2, #0
 80012d8:	|  |  |   4b11      	ldr	r3, [pc, #68]	; (8001320 <TemperatureSensorsMeasure+0xcc>)
 80012da:	|  |  |   f008 f845 	bl	8009368 <__aeabi_dmul>
 80012de:	|  |  |   4602      	mov	r2, r0
 80012e0:	|  |  |   460b      	mov	r3, r1
 80012e2:	|  |  |   7ffc      	ldrb	r4, [r7, #31]
 80012e4:	|  |  |   4610      	mov	r0, r2
 80012e6:	|  |  |   4619      	mov	r1, r3
 80012e8:	|  |  |   f008 fa98 	bl	800981c <__aeabi_d2f>
 80012ec:	|  |  |   4602      	mov	r2, r0
 80012ee:	|  |  |   490b      	ldr	r1, [pc, #44]	; (800131c <TemperatureSensorsMeasure+0xc8>)
 80012f0:	|  |  |   4623      	mov	r3, r4
 80012f2:	|  |  |   00db      	lsls	r3, r3, #3
 80012f4:	|  |  |   1b1b      	subs	r3, r3, r4
 80012f6:	|  |  |   009b      	lsls	r3, r3, #2
 80012f8:	|  |  |   440b      	add	r3, r1
 80012fa:	|  |  |   3318      	adds	r3, #24
 80012fc:	|  |  |   601a      	str	r2, [r3, #0]
    for(uint8_t i = 0; i < 12; i++){
 80012fe:	|  |  \-> 7ffb      	ldrb	r3, [r7, #31]
 8001300:	|  |      3301      	adds	r3, #1
 8001302:	|  |      77fb      	strb	r3, [r7, #31]
 8001304:	|  \----> 7ffb      	ldrb	r3, [r7, #31]
 8001306:	|         2b0b      	cmp	r3, #11
 8001308:	\-------- d9ad      	bls.n	8001266 <TemperatureSensorsMeasure+0x12>
        }
    }
}
 800130a:	          bf00      	nop
 800130c:	          bf00      	nop
 800130e:	          3724      	adds	r7, #36	; 0x24
 8001310:	          46bd      	mov	sp, r7
 8001312:	          bd90      	pop	{r4, r7, pc}
 8001314:	          0cb0      	lsrs	r0, r6, #18
 8001316:	          2000      	movs	r0, #0
 8001318:	          0008      	movs	r0, r1
 800131a:	          2000      	movs	r0, #0
 800131c:	          0b60      	lsrs	r0, r4, #13
 800131e:	          2000      	movs	r0, #0
 8001320:	          0000      	movs	r0, r0
 8001322:	          3fb0      	subs	r7, #176	; 0xb0

08001324 <MakeMeasure>:
void MakeMeasure(){
 8001324:	       b580      	push	{r7, lr}
 8001326:	       b090      	sub	sp, #64	; 0x40
 8001328:	       af00      	add	r7, sp, #0
    for(uint8_t i = 0; i < 11; i++){
 800132a:	       2300      	movs	r3, #0
 800132c:	       f887 303f 	strb.w	r3, [r7, #63]	; 0x3f
 8001330:	   /-- e01a      	b.n	8001368 <MakeMeasure+0x44>
        adc.reg_channel_queue[i].result = 0;
 8001332:	/--|-> f897 203f 	ldrb.w	r2, [r7, #63]	; 0x3f
 8001336:	|  |   4966      	ldr	r1, [pc, #408]	; (80014d0 <MakeMeasure+0x1ac>)
 8001338:	|  |   4613      	mov	r3, r2
 800133a:	|  |   005b      	lsls	r3, r3, #1
 800133c:	|  |   4413      	add	r3, r2
 800133e:	|  |   009b      	lsls	r3, r3, #2
 8001340:	|  |   440b      	add	r3, r1
 8001342:	|  |   330c      	adds	r3, #12
 8001344:	|  |   2200      	movs	r2, #0
 8001346:	|  |   801a      	strh	r2, [r3, #0]
        sensors[i].scratchpad.temperature = 0;
 8001348:	|  |   f897 203f 	ldrb.w	r2, [r7, #63]	; 0x3f
 800134c:	|  |   4961      	ldr	r1, [pc, #388]	; (80014d4 <MakeMeasure+0x1b0>)
 800134e:	|  |   4613      	mov	r3, r2
 8001350:	|  |   00db      	lsls	r3, r3, #3
 8001352:	|  |   1a9b      	subs	r3, r3, r2
 8001354:	|  |   009b      	lsls	r3, r3, #2
 8001356:	|  |   440b      	add	r3, r1
 8001358:	|  |   330c      	adds	r3, #12
 800135a:	|  |   2200      	movs	r2, #0
 800135c:	|  |   801a      	strh	r2, [r3, #0]
    for(uint8_t i = 0; i < 11; i++){
 800135e:	|  |   f897 303f 	ldrb.w	r3, [r7, #63]	; 0x3f
 8001362:	|  |   3301      	adds	r3, #1
 8001364:	|  |   f887 303f 	strb.w	r3, [r7, #63]	; 0x3f
 8001368:	|  \-> f897 303f 	ldrb.w	r3, [r7, #63]	; 0x3f
 800136c:	|      2b0a      	cmp	r3, #10
 800136e:	\----- d9e0      	bls.n	8001332 <MakeMeasure+0xe>
    }
    sensors[11].scratchpad.temperature = 0;
 8001370:	       4b58      	ldr	r3, [pc, #352]	; (80014d4 <MakeMeasure+0x1b0>)
 8001372:	       2200      	movs	r2, #0
 8001374:	       f8a3 2140 	strh.w	r2, [r3, #320]	; 0x140

    gpio_state(TEMP_SENSOR_PWR_EN, HIGH);
 8001378:	       2101      	movs	r1, #1
 800137a:	       2028      	movs	r0, #40	; 0x28
 800137c:	       f000 fe10 	bl	8001fa0 <gpio_state>
    gpio_state(SOIL_SENSOR_PWR_EN, HIGH);
 8001380:	       2101      	movs	r1, #1
 8001382:	       2009      	movs	r0, #9
 8001384:	       f000 fe0c 	bl	8001fa0 <gpio_state>
    Delay(100);
 8001388:	       2064      	movs	r0, #100	; 0x64
 800138a:	       f004 fc23 	bl	8005bd4 <Delay>
    ADC_Start(&adc);
 800138e:	       4850      	ldr	r0, [pc, #320]	; (80014d0 <MakeMeasure+0x1ac>)
 8001390:	       f000 fc07 	bl	8001ba2 <ADC_Start>

    TemperatureSensorsMeasure();
 8001394:	       f7ff ff5e 	bl	8001254 <TemperatureSensorsMeasure>
    while(adc.measure_process);
 8001398:	       bf00      	nop
 800139a:	   /-> 4b4d      	ldr	r3, [pc, #308]	; (80014d0 <MakeMeasure+0x1ac>)
 800139c:	   |   f893 30d8 	ldrb.w	r3, [r3, #216]	; 0xd8
 80013a0:	   |   2b00      	cmp	r3, #0
 80013a2:	   \-- d1fa      	bne.n	800139a <MakeMeasure+0x76>
    gpio_state(TEMP_SENSOR_PWR_EN, LOW);
 80013a4:	       2100      	movs	r1, #0
 80013a6:	       2028      	movs	r0, #40	; 0x28
 80013a8:	       f000 fdfa 	bl	8001fa0 <gpio_state>
    gpio_state(SOIL_SENSOR_PWR_EN, LOW);
 80013ac:	       2100      	movs	r1, #0
 80013ae:	       2009      	movs	r0, #9
 80013b0:	       f000 fdf6 	bl	8001fa0 <gpio_state>
    uint16_t measured_data[24] = {0};
 80013b4:	       f107 030c 	add.w	r3, r7, #12
 80013b8:	       2230      	movs	r2, #48	; 0x30
 80013ba:	       2100      	movs	r1, #0
 80013bc:	       4618      	mov	r0, r3
 80013be:	       f008 fb0f 	bl	80099e0 <memset>
    // [control_word, self_id, target_id, cmd, [datetime[], adc_data[], temp_data[], vbat, gsm_vbat],]
    //       1          1         1       1       7           11*2         12*2      1*2     1*2
    for(uint8_t i = 0; i < 12; i++){
 80013c2:	       2300      	movs	r3, #0
 80013c4:	       f887 303e 	strb.w	r3, [r7, #62]	; 0x3e
 80013c8:	   /-- e02a      	b.n	8001420 <MakeMeasure+0xfc>
        measured_data[i] = adc.reg_channel_queue[i].result;
 80013ca:	/--|-> f897 203e 	ldrb.w	r2, [r7, #62]	; 0x3e
 80013ce:	|  |   f897 103e 	ldrb.w	r1, [r7, #62]	; 0x3e
 80013d2:	|  |   483f      	ldr	r0, [pc, #252]	; (80014d0 <MakeMeasure+0x1ac>)
 80013d4:	|  |   4613      	mov	r3, r2
 80013d6:	|  |   005b      	lsls	r3, r3, #1
 80013d8:	|  |   4413      	add	r3, r2
 80013da:	|  |   009b      	lsls	r3, r3, #2
 80013dc:	|  |   4403      	add	r3, r0
 80013de:	|  |   330c      	adds	r3, #12
 80013e0:	|  |   881a      	ldrh	r2, [r3, #0]
 80013e2:	|  |   004b      	lsls	r3, r1, #1
 80013e4:	|  |   f107 0140 	add.w	r1, r7, #64	; 0x40
 80013e8:	|  |   440b      	add	r3, r1
 80013ea:	|  |   f823 2c34 	strh.w	r2, [r3, #-52]
        measured_data[i + 12] = sensors[i].scratchpad.temperature;
 80013ee:	|  |   f897 203e 	ldrb.w	r2, [r7, #62]	; 0x3e
 80013f2:	|  |   f897 303e 	ldrb.w	r3, [r7, #62]	; 0x3e
 80013f6:	|  |   f103 010c 	add.w	r1, r3, #12
 80013fa:	|  |   4836      	ldr	r0, [pc, #216]	; (80014d4 <MakeMeasure+0x1b0>)
 80013fc:	|  |   4613      	mov	r3, r2
 80013fe:	|  |   00db      	lsls	r3, r3, #3
 8001400:	|  |   1a9b      	subs	r3, r3, r2
 8001402:	|  |   009b      	lsls	r3, r3, #2
 8001404:	|  |   4403      	add	r3, r0
 8001406:	|  |   330c      	adds	r3, #12
 8001408:	|  |   881a      	ldrh	r2, [r3, #0]
 800140a:	|  |   004b      	lsls	r3, r1, #1
 800140c:	|  |   f107 0140 	add.w	r1, r7, #64	; 0x40
 8001410:	|  |   440b      	add	r3, r1
 8001412:	|  |   f823 2c34 	strh.w	r2, [r3, #-52]
    for(uint8_t i = 0; i < 12; i++){
 8001416:	|  |   f897 303e 	ldrb.w	r3, [r7, #62]	; 0x3e
 800141a:	|  |   3301      	adds	r3, #1
 800141c:	|  |   f887 303e 	strb.w	r3, [r7, #62]	; 0x3e
 8001420:	|  \-> f897 303e 	ldrb.w	r3, [r7, #62]	; 0x3e
 8001424:	|      2b0b      	cmp	r3, #11
 8001426:	\----- d9d0      	bls.n	80013ca <MakeMeasure+0xa6>
    }
    measured_data[11] = adc.vdda_mvolt;
 8001428:	       4b29      	ldr	r3, [pc, #164]	; (80014d0 <MakeMeasure+0x1ac>)
 800142a:	       f8b3 30d6 	ldrh.w	r3, [r3, #214]	; 0xd6
 800142e:	       847b      	strh	r3, [r7, #34]	; 0x22
    if(buffer_ptr == 0){
 8001430:	       4b29      	ldr	r3, [pc, #164]	; (80014d8 <MakeMeasure+0x1b4>)
 8001432:	       881b      	ldrh	r3, [r3, #0]
 8001434:	       2b00      	cmp	r3, #0
 8001436:	   /-- d11a      	bne.n	800146e <MakeMeasure+0x14a>
        uint16_t initial_data[4] = {0xDEAD, 0xBEAF, buffer_ptr, 0x00};
 8001438:	   |   f64d 63ad 	movw	r3, #57005	; 0xdead
 800143c:	   |   80bb      	strh	r3, [r7, #4]
 800143e:	   |   f64b 63af 	movw	r3, #48815	; 0xbeaf
 8001442:	   |   80fb      	strh	r3, [r7, #6]
 8001444:	   |   4b24      	ldr	r3, [pc, #144]	; (80014d8 <MakeMeasure+0x1b4>)
 8001446:	   |   881b      	ldrh	r3, [r3, #0]
 8001448:	   |   813b      	strh	r3, [r7, #8]
 800144a:	   |   2300      	movs	r3, #0
 800144c:	   |   817b      	strh	r3, [r7, #10]
        memcpy(data_buffer + buffer_ptr, (uint8_t *)(&initial_data), sizeof(initial_data));
 800144e:	   |   4b22      	ldr	r3, [pc, #136]	; (80014d8 <MakeMeasure+0x1b4>)
 8001450:	   |   881b      	ldrh	r3, [r3, #0]
 8001452:	   |   461a      	mov	r2, r3
 8001454:	   |   4b21      	ldr	r3, [pc, #132]	; (80014dc <MakeMeasure+0x1b8>)
 8001456:	   |   4413      	add	r3, r2
 8001458:	   |   1d39      	adds	r1, r7, #4
 800145a:	   |   2208      	movs	r2, #8
 800145c:	   |   4618      	mov	r0, r3
 800145e:	   |   f008 faff 	bl	8009a60 <memcpy>
        buffer_ptr += sizeof(initial_data);
 8001462:	   |   4b1d      	ldr	r3, [pc, #116]	; (80014d8 <MakeMeasure+0x1b4>)
 8001464:	   |   881b      	ldrh	r3, [r3, #0]
 8001466:	   |   3308      	adds	r3, #8
 8001468:	   |   b29a      	uxth	r2, r3
 800146a:	   |   4b1b      	ldr	r3, [pc, #108]	; (80014d8 <MakeMeasure+0x1b4>)
 800146c:	   |   801a      	strh	r2, [r3, #0]
    }
    if(buffer_ptr + sizeof(current_rtc) + sizeof(measured_data) < sizeof(data_buffer)){
 800146e:	   \-> 4b1a      	ldr	r3, [pc, #104]	; (80014d8 <MakeMeasure+0x1b4>)
 8001470:	       881b      	ldrh	r3, [r3, #0]
 8001472:	       3337      	adds	r3, #55	; 0x37
 8001474:	       f5b3 7f40 	cmp.w	r3, #768	; 0x300
 8001478:	   /-- d225      	bcs.n	80014c6 <MakeMeasure+0x1a2>
        RTC_get_time(&current_rtc);
 800147a:	   |   4819      	ldr	r0, [pc, #100]	; (80014e0 <MakeMeasure+0x1bc>)
 800147c:	   |   f002 fe16 	bl	80040ac <RTC_get_time>
        memcpy(data_buffer + buffer_ptr, (uint8_t *)(&current_rtc), sizeof(current_rtc));
 8001480:	   |   4b15      	ldr	r3, [pc, #84]	; (80014d8 <MakeMeasure+0x1b4>)
 8001482:	   |   881b      	ldrh	r3, [r3, #0]
 8001484:	   |   461a      	mov	r2, r3
 8001486:	   |   4b15      	ldr	r3, [pc, #84]	; (80014dc <MakeMeasure+0x1b8>)
 8001488:	   |   4413      	add	r3, r2
 800148a:	   |   4a15      	ldr	r2, [pc, #84]	; (80014e0 <MakeMeasure+0x1bc>)
 800148c:	   |   6810      	ldr	r0, [r2, #0]
 800148e:	   |   6018      	str	r0, [r3, #0]
 8001490:	   |   8891      	ldrh	r1, [r2, #4]
 8001492:	   |   7992      	ldrb	r2, [r2, #6]
 8001494:	   |   8099      	strh	r1, [r3, #4]
 8001496:	   |   719a      	strb	r2, [r3, #6]
        buffer_ptr += sizeof(current_rtc);
 8001498:	   |   4b0f      	ldr	r3, [pc, #60]	; (80014d8 <MakeMeasure+0x1b4>)
 800149a:	   |   881b      	ldrh	r3, [r3, #0]
 800149c:	   |   3307      	adds	r3, #7
 800149e:	   |   b29a      	uxth	r2, r3
 80014a0:	   |   4b0d      	ldr	r3, [pc, #52]	; (80014d8 <MakeMeasure+0x1b4>)
 80014a2:	   |   801a      	strh	r2, [r3, #0]
        memcpy(data_buffer + buffer_ptr, (uint8_t *)(&measured_data), sizeof(measured_data));
 80014a4:	   |   4b0c      	ldr	r3, [pc, #48]	; (80014d8 <MakeMeasure+0x1b4>)
 80014a6:	   |   881b      	ldrh	r3, [r3, #0]
 80014a8:	   |   461a      	mov	r2, r3
 80014aa:	   |   4b0c      	ldr	r3, [pc, #48]	; (80014dc <MakeMeasure+0x1b8>)
 80014ac:	   |   4413      	add	r3, r2
 80014ae:	   |   f107 010c 	add.w	r1, r7, #12
 80014b2:	   |   2230      	movs	r2, #48	; 0x30
 80014b4:	   |   4618      	mov	r0, r3
 80014b6:	   |   f008 fad3 	bl	8009a60 <memcpy>
        buffer_ptr += sizeof(measured_data);
 80014ba:	   |   4b07      	ldr	r3, [pc, #28]	; (80014d8 <MakeMeasure+0x1b4>)
 80014bc:	   |   881b      	ldrh	r3, [r3, #0]
 80014be:	   |   3330      	adds	r3, #48	; 0x30
 80014c0:	   |   b29a      	uxth	r2, r3
 80014c2:	   |   4b05      	ldr	r3, [pc, #20]	; (80014d8 <MakeMeasure+0x1b4>)
 80014c4:	   |   801a      	strh	r2, [r3, #0]
    }
}
 80014c6:	   \-> bf00      	nop
 80014c8:	       3740      	adds	r7, #64	; 0x40
 80014ca:	       46bd      	mov	sp, r7
 80014cc:	       bd80      	pop	{r7, pc}
 80014ce:	       bf00      	nop
 80014d0:	       0a84      	lsrs	r4, r0, #10
 80014d2:	       2000      	movs	r0, #0
 80014d4:	       0b60      	lsrs	r0, r4, #13
 80014d6:	       2000      	movs	r0, #0
 80014d8:	       1074      	asrs	r4, r6, #1
 80014da:	       2000      	movs	r0, #0
 80014dc:	       0d74      	lsrs	r4, r6, #21
 80014de:	       2000      	movs	r0, #0
 80014e0:	       1280      	asrs	r0, r0, #10
 80014e2:	       2000      	movs	r0, #0

080014e4 <SEND_DATA_AND_SLEEP>:
void SEND_DATA_AND_SLEEP(){
 80014e4:	    b580      	push	{r7, lr}
 80014e6:	    af00      	add	r7, sp, #0
    SEND_TO_SERVER();
 80014e8:	    f7ff fd4f 	bl	8000f8a <SEND_TO_SERVER>
    WAKEUP_PERIOD_SEC = RTC->BKP10R;
 80014ec:	    4b10      	ldr	r3, [pc, #64]	; (8001530 <SEND_DATA_AND_SLEEP+0x4c>)
 80014ee:	    6f9b      	ldr	r3, [r3, #120]	; 0x78
 80014f0:	    b29a      	uxth	r2, r3
 80014f2:	    4b10      	ldr	r3, [pc, #64]	; (8001534 <SEND_DATA_AND_SLEEP+0x50>)
 80014f4:	    801a      	strh	r2, [r3, #0]
    if(WAKEUP_PERIOD_SEC > 0 && WAKEUP_PERIOD_SEC < 50000)
 80014f6:	    4b0f      	ldr	r3, [pc, #60]	; (8001534 <SEND_DATA_AND_SLEEP+0x50>)
 80014f8:	    881b      	ldrh	r3, [r3, #0]
 80014fa:	    2b00      	cmp	r3, #0
 80014fc:	/-- d00c      	beq.n	8001518 <SEND_DATA_AND_SLEEP+0x34>
 80014fe:	|   4b0d      	ldr	r3, [pc, #52]	; (8001534 <SEND_DATA_AND_SLEEP+0x50>)
 8001500:	|   881b      	ldrh	r3, [r3, #0]
 8001502:	|   f24c 324f 	movw	r2, #49999	; 0xc34f
 8001506:	|   4293      	cmp	r3, r2
 8001508:	+-- d806      	bhi.n	8001518 <SEND_DATA_AND_SLEEP+0x34>
        RTC_auto_wakeup_enable(WAKEUP_PERIOD_SEC-160);
 800150a:	|   4b0a      	ldr	r3, [pc, #40]	; (8001534 <SEND_DATA_AND_SLEEP+0x50>)
 800150c:	|   881b      	ldrh	r3, [r3, #0]
 800150e:	|   3ba0      	subs	r3, #160	; 0xa0
 8001510:	|   b29b      	uxth	r3, r3
 8001512:	|   4618      	mov	r0, r3
 8001514:	|   f002 f94a 	bl	80037ac <RTC_auto_wakeup_enable>
    Delay(2000);
 8001518:	\-> f44f 60fa 	mov.w	r0, #2000	; 0x7d0
 800151c:	    f004 fb5a 	bl	8005bd4 <Delay>
    SX126x_SetSleep(&SX1268);
 8001520:	    4805      	ldr	r0, [pc, #20]	; (8001538 <SEND_DATA_AND_SLEEP+0x54>)
 8001522:	    f006 fae7 	bl	8007af4 <SX126x_SetSleep>
    stop_cortex();
 8001526:	    f004 fcfb 	bl	8005f20 <stop_cortex>
}
 800152a:	    bf00      	nop
 800152c:	    bd80      	pop	{r7, pc}
 800152e:	    bf00      	nop
 8001530:	    2800      	cmp	r0, #0
 8001532:	    4000      	ands	r0, r0
 8001534:	    1288      	asrs	r0, r1, #10
 8001536:	    2000      	movs	r0, #0
 8001538:	    09c8      	lsrs	r0, r1, #7
 800153a:	    2000      	movs	r0, #0

0800153c <main>:
int main(){
 800153c:	          b580      	push	{r7, lr}
 800153e:	          af00      	add	r7, sp, #0
	// init_global_variables();
    SCB->CPACR |= 0x0F << 20;
 8001540:	          4b23      	ldr	r3, [pc, #140]	; (80015d0 <main+0x94>)
 8001542:	          f8d3 3088 	ldr.w	r3, [r3, #136]	; 0x88
 8001546:	          4a22      	ldr	r2, [pc, #136]	; (80015d0 <main+0x94>)
 8001548:	          f443 0370 	orr.w	r3, r3, #15728640	; 0xf00000
 800154c:	          f8c2 3088 	str.w	r3, [r2, #136]	; 0x88
    System_Init();
 8001550:	          f7fe ff84 	bl	800045c <System_Init>
    buffer_ptr = 0;
 8001554:	          4b1f      	ldr	r3, [pc, #124]	; (80015d4 <main+0x98>)
 8001556:	          2200      	movs	r2, #0
 8001558:	          801a      	strh	r2, [r3, #0]
    memset(data_buffer, 0, 256);
 800155a:	          f44f 7280 	mov.w	r2, #256	; 0x100
 800155e:	          2100      	movs	r1, #0
 8001560:	          481d      	ldr	r0, [pc, #116]	; (80015d8 <main+0x9c>)
 8001562:	          f008 fa3d 	bl	80099e0 <memset>
    MakeMeasure();
 8001566:	          f7ff fedd 	bl	8001324 <MakeMeasure>
    while(1){
	// delay_action(5000, 0, LED_BLINK);
        if(SX1268.new_rx_data_flag){
 800156a:	/-------> 4b1c      	ldr	r3, [pc, #112]	; (80015dc <main+0xa0>)
 800156c:	|         f893 3028 	ldrb.w	r3, [r3, #40]	; 0x28
 8001570:	|         2b00      	cmp	r3, #0
 8001572:	|     /-- d002      	beq.n	800157a <main+0x3e>
            SX126x_RxDataParse(&SX1268);
 8001574:	|     |   4819      	ldr	r0, [pc, #100]	; (80015dc <main+0xa0>)
 8001576:	|     |   f006 fc6b 	bl	8007e50 <SX126x_RxDataParse>
        }
        if(gs2_buf_ptr > 15){
 800157a:	|     \-> 4b19      	ldr	r3, [pc, #100]	; (80015e0 <main+0xa4>)
 800157c:	|         781b      	ldrb	r3, [r3, #0]
 800157e:	|         2b0f      	cmp	r3, #15
 8001580:	|  /----- d920      	bls.n	80015c4 <main+0x88>
            SEND_TO_SERVER();
 8001582:	|  |      f7ff fd02 	bl	8000f8a <SEND_TO_SERVER>
            WAKEUP_PERIOD_SEC = RTC->BKP10R;
 8001586:	|  |      4b17      	ldr	r3, [pc, #92]	; (80015e4 <main+0xa8>)
 8001588:	|  |      6f9b      	ldr	r3, [r3, #120]	; 0x78
 800158a:	|  |      b29a      	uxth	r2, r3
 800158c:	|  |      4b16      	ldr	r3, [pc, #88]	; (80015e8 <main+0xac>)
 800158e:	|  |      801a      	strh	r2, [r3, #0]
            if(WAKEUP_PERIOD_SEC > 0 && WAKEUP_PERIOD_SEC < 50000)
 8001590:	|  |      4b15      	ldr	r3, [pc, #84]	; (80015e8 <main+0xac>)
 8001592:	|  |      881b      	ldrh	r3, [r3, #0]
 8001594:	|  |      2b00      	cmp	r3, #0
 8001596:	|  |  /-- d00c      	beq.n	80015b2 <main+0x76>
 8001598:	|  |  |   4b13      	ldr	r3, [pc, #76]	; (80015e8 <main+0xac>)
 800159a:	|  |  |   881b      	ldrh	r3, [r3, #0]
 800159c:	|  |  |   f24c 324f 	movw	r2, #49999	; 0xc34f
 80015a0:	|  |  |   4293      	cmp	r3, r2
 80015a2:	|  |  +-- d806      	bhi.n	80015b2 <main+0x76>
                RTC_auto_wakeup_enable(WAKEUP_PERIOD_SEC-60);
 80015a4:	|  |  |   4b10      	ldr	r3, [pc, #64]	; (80015e8 <main+0xac>)
 80015a6:	|  |  |   881b      	ldrh	r3, [r3, #0]
 80015a8:	|  |  |   3b3c      	subs	r3, #60	; 0x3c
 80015aa:	|  |  |   b29b      	uxth	r3, r3
 80015ac:	|  |  |   4618      	mov	r0, r3
 80015ae:	|  |  |   f002 f8fd 	bl	80037ac <RTC_auto_wakeup_enable>
            Delay(2000);
 80015b2:	|  |  \-> f44f 60fa 	mov.w	r0, #2000	; 0x7d0
 80015b6:	|  |      f004 fb0d 	bl	8005bd4 <Delay>
            SX126x_SetSleep(&SX1268);
 80015ba:	|  |      4808      	ldr	r0, [pc, #32]	; (80015dc <main+0xa0>)
 80015bc:	|  |      f006 fa9a 	bl	8007af4 <SX126x_SetSleep>
            stop_cortex();
 80015c0:	|  |      f004 fcae 	bl	8005f20 <stop_cortex>
        }
        delay_action(720000, 1, SEND_DATA_AND_SLEEP);
 80015c4:	|  \----> 4a09      	ldr	r2, [pc, #36]	; (80015ec <main+0xb0>)
 80015c6:	|         2101      	movs	r1, #1
 80015c8:	|         4809      	ldr	r0, [pc, #36]	; (80015f0 <main+0xb4>)
 80015ca:	|         f004 fb4b 	bl	8005c64 <delay_action>
        if(SX1268.new_rx_data_flag){
 80015ce:	\-------- e7cc      	b.n	800156a <main+0x2e>
 80015d0:	          ed00 e000 	stc	0, cr14, [r0, #-0]
 80015d4:	          1074      	asrs	r4, r6, #1
 80015d6:	          2000      	movs	r0, #0
 80015d8:	          0d74      	lsrs	r4, r6, #21
 80015da:	          2000      	movs	r0, #0
 80015dc:	          09c8      	lsrs	r0, r1, #7
 80015de:	          2000      	movs	r0, #0
 80015e0:	          1178      	asrs	r0, r7, #5
 80015e2:	          2000      	movs	r0, #0
 80015e4:	          2800      	cmp	r0, #0
 80015e6:	          4000      	ands	r0, r0
 80015e8:	          1288      	asrs	r0, r1, #10
 80015ea:	          2000      	movs	r0, #0
 80015ec:	          14e5      	asrs	r5, r4, #19
 80015ee:	          0800      	lsrs	r0, r0, #32
 80015f0:	          fc80 000a 	stc2	0, cr0, [r0], {10}

080015f4 <USART3_IRQHandler>:
// #include "sim7000.h"
// #include "fifo.h"



void USART3_IRQHandler(void) {
 80015f4:	b580      	push	{r7, lr}
 80015f6:	af00      	add	r7, sp, #0
    GSM_RX_Handler();
 80015f8:	f005 fe10 	bl	800721c <GSM_RX_Handler>
}
 80015fc:	bf00      	nop
 80015fe:	bd80      	pop	{r7, pc}

08001600 <EXTI9_5_IRQHandler>:
void EXTI9_5_IRQHandler(void){
 8001600:	b580      	push	{r7, lr}
 8001602:	af00      	add	r7, sp, #0
    EXTI->PR1 |= EXTI_PR1_PIF6;
 8001604:	4b05      	ldr	r3, [pc, #20]	; (800161c <EXTI9_5_IRQHandler+0x1c>)
 8001606:	695b      	ldr	r3, [r3, #20]
 8001608:	4a04      	ldr	r2, [pc, #16]	; (800161c <EXTI9_5_IRQHandler+0x1c>)
 800160a:	f043 0340 	orr.w	r3, r3, #64	; 0x40
 800160e:	6153      	str	r3, [r2, #20]
    SX126x_RxHandler(&SX1268);
 8001610:	4803      	ldr	r0, [pc, #12]	; (8001620 <EXTI9_5_IRQHandler+0x20>)
 8001612:	f006 fc4d 	bl	8007eb0 <SX126x_RxHandler>

}
 8001616:	bf00      	nop
 8001618:	bd80      	pop	{r7, pc}
 800161a:	bf00      	nop
 800161c:	0400      	lsls	r0, r0, #16
 800161e:	4001      	ands	r1, r0
 8001620:	09c8      	lsrs	r0, r1, #7
 8001622:	2000      	movs	r0, #0

08001624 <ADC1_IRQHandler>:
void ADC1_IRQHandler(void){
 8001624:	b580      	push	{r7, lr}
 8001626:	af00      	add	r7, sp, #0
    ADC_Handler();
 8001628:	f000 fadb 	bl	8001be2 <ADC_Handler>
}
 800162c:	bf00      	nop
 800162e:	bd80      	pop	{r7, pc}

08001630 <RTC_WKUP_IRQHandler>:
void RTC_WKUP_IRQHandler(){
 8001630:	b480      	push	{r7}
 8001632:	af00      	add	r7, sp, #0
    EXTI->PR1 |= EXTI_PR1_PIF20;	// clear pending flag (WAKEUP)
 8001634:	4b12      	ldr	r3, [pc, #72]	; (8001680 <RTC_WKUP_IRQHandler+0x50>)
 8001636:	695b      	ldr	r3, [r3, #20]
 8001638:	4a11      	ldr	r2, [pc, #68]	; (8001680 <RTC_WKUP_IRQHandler+0x50>)
 800163a:	f443 1380 	orr.w	r3, r3, #1048576	; 0x100000
 800163e:	6153      	str	r3, [r2, #20]
    PWR->CR1 |= PWR_CR1_DBP;
 8001640:	4b10      	ldr	r3, [pc, #64]	; (8001684 <RTC_WKUP_IRQHandler+0x54>)
 8001642:	681b      	ldr	r3, [r3, #0]
 8001644:	4a0f      	ldr	r2, [pc, #60]	; (8001684 <RTC_WKUP_IRQHandler+0x54>)
 8001646:	f443 7380 	orr.w	r3, r3, #256	; 0x100
 800164a:	6013      	str	r3, [r2, #0]
	RTC->WPR = 0xCA;
 800164c:	4b0e      	ldr	r3, [pc, #56]	; (8001688 <RTC_WKUP_IRQHandler+0x58>)
 800164e:	22ca      	movs	r2, #202	; 0xca
 8001650:	625a      	str	r2, [r3, #36]	; 0x24
	RTC->WPR = 0x53;
 8001652:	4b0d      	ldr	r3, [pc, #52]	; (8001688 <RTC_WKUP_IRQHandler+0x58>)
 8001654:	2253      	movs	r2, #83	; 0x53
 8001656:	625a      	str	r2, [r3, #36]	; 0x24

    RTC->ISR &= ~RTC_ISR_WUTF;
 8001658:	4b0b      	ldr	r3, [pc, #44]	; (8001688 <RTC_WKUP_IRQHandler+0x58>)
 800165a:	68db      	ldr	r3, [r3, #12]
 800165c:	4a0a      	ldr	r2, [pc, #40]	; (8001688 <RTC_WKUP_IRQHandler+0x58>)
 800165e:	f423 6380 	bic.w	r3, r3, #1024	; 0x400
 8001662:	60d3      	str	r3, [r2, #12]
    RTC->WPR = 0xFF;
 8001664:	4b08      	ldr	r3, [pc, #32]	; (8001688 <RTC_WKUP_IRQHandler+0x58>)
 8001666:	22ff      	movs	r2, #255	; 0xff
 8001668:	625a      	str	r2, [r3, #36]	; 0x24
	PWR->CR1 &= ~PWR_CR1_DBP;
 800166a:	4b06      	ldr	r3, [pc, #24]	; (8001684 <RTC_WKUP_IRQHandler+0x54>)
 800166c:	681b      	ldr	r3, [r3, #0]
 800166e:	4a05      	ldr	r2, [pc, #20]	; (8001684 <RTC_WKUP_IRQHandler+0x54>)
 8001670:	f423 7380 	bic.w	r3, r3, #256	; 0x100
 8001674:	6013      	str	r3, [r2, #0]
}
 8001676:	bf00      	nop
 8001678:	46bd      	mov	sp, r7
 800167a:	f85d 7b04 	ldr.w	r7, [sp], #4
 800167e:	4770      	bx	lr
 8001680:	0400      	lsls	r0, r0, #16
 8001682:	4001      	ands	r1, r0
 8001684:	7000      	strb	r0, [r0, #0]
 8001686:	4000      	ands	r0, r0
 8001688:	2800      	cmp	r0, #0
 800168a:	4000      	ands	r0, r0

0800168c <RTC_Alarm_IRQHandler>:

void RTC_Alarm_IRQHandler(void)
{
 800168c:	b480      	push	{r7}
 800168e:	af00      	add	r7, sp, #0
	EXTI->PR1 |= EXTI_PR1_PIF18;	// clear pending flag (ALARM)
 8001690:	4b12      	ldr	r3, [pc, #72]	; (80016dc <RTC_Alarm_IRQHandler+0x50>)
 8001692:	695b      	ldr	r3, [r3, #20]
 8001694:	4a11      	ldr	r2, [pc, #68]	; (80016dc <RTC_Alarm_IRQHandler+0x50>)
 8001696:	f443 2380 	orr.w	r3, r3, #262144	; 0x40000
 800169a:	6153      	str	r3, [r2, #20]

	// // unlock write protection
	PWR->CR1 |= PWR_CR1_DBP;
 800169c:	4b10      	ldr	r3, [pc, #64]	; (80016e0 <RTC_Alarm_IRQHandler+0x54>)
 800169e:	681b      	ldr	r3, [r3, #0]
 80016a0:	4a0f      	ldr	r2, [pc, #60]	; (80016e0 <RTC_Alarm_IRQHandler+0x54>)
 80016a2:	f443 7380 	orr.w	r3, r3, #256	; 0x100
 80016a6:	6013      	str	r3, [r2, #0]
	RTC->WPR = 0xCA;
 80016a8:	4b0e      	ldr	r3, [pc, #56]	; (80016e4 <RTC_Alarm_IRQHandler+0x58>)
 80016aa:	22ca      	movs	r2, #202	; 0xca
 80016ac:	625a      	str	r2, [r3, #36]	; 0x24
	RTC->WPR = 0x53;
 80016ae:	4b0d      	ldr	r3, [pc, #52]	; (80016e4 <RTC_Alarm_IRQHandler+0x58>)
 80016b0:	2253      	movs	r2, #83	; 0x53
 80016b2:	625a      	str	r2, [r3, #36]	; 0x24
	// RTC->ALRMAR &= (RTC_ALRMAR_HU ^ RTC_ALRMAR_HU);		// Bits 19:16 HU[3:0]: Hour units in BCD format.
	// RTC->ALRMAR &= (RTC_ALRMAR_MNT ^ RTC_ALRMAR_MNT);	// Bits 14:12 MNT[2:0]: Minute tens in BCD format.
	// RTC->ALRMAR &= (RTC_ALRMAR_MNU ^ RTC_ALRMAR_MNU);	// Bits 11:8 MNU[3:0]: Minute units in BCD format.

	// // lock write protection - writing a wrong key reactivates the write protection
	RTC->ISR &= ~RTC_ISR_ALRAF;	//  flag is cleared by software by writing 0
 80016b4:	4b0b      	ldr	r3, [pc, #44]	; (80016e4 <RTC_Alarm_IRQHandler+0x58>)
 80016b6:	68db      	ldr	r3, [r3, #12]
 80016b8:	4a0a      	ldr	r2, [pc, #40]	; (80016e4 <RTC_Alarm_IRQHandler+0x58>)
 80016ba:	f423 7380 	bic.w	r3, r3, #256	; 0x100
 80016be:	60d3      	str	r3, [r2, #12]

    RTC->WPR = 0xFF;
 80016c0:	4b08      	ldr	r3, [pc, #32]	; (80016e4 <RTC_Alarm_IRQHandler+0x58>)
 80016c2:	22ff      	movs	r2, #255	; 0xff
 80016c4:	625a      	str	r2, [r3, #36]	; 0x24
	PWR->CR1 &= ~PWR_CR1_DBP;
 80016c6:	4b06      	ldr	r3, [pc, #24]	; (80016e0 <RTC_Alarm_IRQHandler+0x54>)
 80016c8:	681b      	ldr	r3, [r3, #0]
 80016ca:	4a05      	ldr	r2, [pc, #20]	; (80016e0 <RTC_Alarm_IRQHandler+0x54>)
 80016cc:	f423 7380 	bic.w	r3, r3, #256	; 0x100
 80016d0:	6013      	str	r3, [r2, #0]


	// UART_tx_array(USART1, "RTC handler\r\n");
 80016d2:	bf00      	nop
 80016d4:	46bd      	mov	sp, r7
 80016d6:	f85d 7b04 	ldr.w	r7, [sp], #4
 80016da:	4770      	bx	lr
 80016dc:	0400      	lsls	r0, r0, #16
 80016de:	4001      	ands	r1, r0
 80016e0:	7000      	strb	r0, [r0, #0]
 80016e2:	4000      	ands	r0, r0
 80016e4:	2800      	cmp	r0, #0
 80016e6:	4000      	ands	r0, r0

080016e8 <__NVIC_EnableIRQ>:
{
 80016e8:	    b480      	push	{r7}
 80016ea:	    b083      	sub	sp, #12
 80016ec:	    af00      	add	r7, sp, #0
 80016ee:	    4603      	mov	r3, r0
 80016f0:	    71fb      	strb	r3, [r7, #7]
  if ((int32_t)(IRQn) >= 0)
 80016f2:	    f997 3007 	ldrsb.w	r3, [r7, #7]
 80016f6:	    2b00      	cmp	r3, #0
 80016f8:	/-- db0b      	blt.n	8001712 <__NVIC_EnableIRQ+0x2a>
    NVIC->ISER[(((uint32_t)IRQn) >> 5UL)] = (uint32_t)(1UL << (((uint32_t)IRQn) & 0x1FUL));
 80016fa:	|   79fb      	ldrb	r3, [r7, #7]
 80016fc:	|   f003 021f 	and.w	r2, r3, #31
 8001700:	|   4907      	ldr	r1, [pc, #28]	; (8001720 <__NVIC_EnableIRQ+0x38>)
 8001702:	|   f997 3007 	ldrsb.w	r3, [r7, #7]
 8001706:	|   095b      	lsrs	r3, r3, #5
 8001708:	|   2001      	movs	r0, #1
 800170a:	|   fa00 f202 	lsl.w	r2, r0, r2
 800170e:	|   f841 2023 	str.w	r2, [r1, r3, lsl #2]
}
 8001712:	\-> bf00      	nop
 8001714:	    370c      	adds	r7, #12
 8001716:	    46bd      	mov	sp, r7
 8001718:	    f85d 7b04 	ldr.w	r7, [sp], #4
 800171c:	    4770      	bx	lr
 800171e:	    bf00      	nop
 8001720:	    e100      	b.n	8001924 <ADC_Init+0x170>
 8001722:	    e000      	b.n	8001726 <ADC_reset_registers+0x2>

08001724 <ADC_reset_registers>:
#include "main.h"
#include "adc.h"
#include "delay.h"

void ADC_reset_registers(ADC_TypeDef* ADCx){
 8001724:	b480      	push	{r7}
 8001726:	b083      	sub	sp, #12
 8001728:	af00      	add	r7, sp, #0
 800172a:	6078      	str	r0, [r7, #4]
    ADCx->CR = 0x20000000;
 800172c:	687b      	ldr	r3, [r7, #4]
 800172e:	f04f 5200 	mov.w	r2, #536870912	; 0x20000000
 8001732:	609a      	str	r2, [r3, #8]
    ADCx->CFGR = 0x80000000;  // reset value
 8001734:	687b      	ldr	r3, [r7, #4]
 8001736:	f04f 4200 	mov.w	r2, #2147483648	; 0x80000000
 800173a:	60da      	str	r2, [r3, #12]
    ADCx->IER = 0;
 800173c:	687b      	ldr	r3, [r7, #4]
 800173e:	2200      	movs	r2, #0
 8001740:	605a      	str	r2, [r3, #4]
    ADCx->ISR = 0;
 8001742:	687b      	ldr	r3, [r7, #4]
 8001744:	2200      	movs	r2, #0
 8001746:	601a      	str	r2, [r3, #0]
    ADCx->CFGR2 = 0;
 8001748:	687b      	ldr	r3, [r7, #4]
 800174a:	2200      	movs	r2, #0
 800174c:	611a      	str	r2, [r3, #16]
    ADCx->SMPR1 = 0;
 800174e:	687b      	ldr	r3, [r7, #4]
 8001750:	2200      	movs	r2, #0
 8001752:	615a      	str	r2, [r3, #20]
    ADCx->SMPR2 = 0;
 8001754:	687b      	ldr	r3, [r7, #4]
 8001756:	2200      	movs	r2, #0
 8001758:	619a      	str	r2, [r3, #24]
    ADCx->TR1 = 0xFF0000;
 800175a:	687b      	ldr	r3, [r7, #4]
 800175c:	f44f 027f 	mov.w	r2, #16711680	; 0xff0000
 8001760:	621a      	str	r2, [r3, #32]
    ADCx->TR2 = 0xFF0000;
 8001762:	687b      	ldr	r3, [r7, #4]
 8001764:	f44f 027f 	mov.w	r2, #16711680	; 0xff0000
 8001768:	625a      	str	r2, [r3, #36]	; 0x24
    ADCx->TR3 = 0xFF0000;
 800176a:	687b      	ldr	r3, [r7, #4]
 800176c:	f44f 027f 	mov.w	r2, #16711680	; 0xff0000
 8001770:	629a      	str	r2, [r3, #40]	; 0x28
    ADCx->SQR1 = 0;
 8001772:	687b      	ldr	r3, [r7, #4]
 8001774:	2200      	movs	r2, #0
 8001776:	631a      	str	r2, [r3, #48]	; 0x30
    ADCx->SQR2 = 0;
 8001778:	687b      	ldr	r3, [r7, #4]
 800177a:	2200      	movs	r2, #0
 800177c:	635a      	str	r2, [r3, #52]	; 0x34
    ADCx->SQR3 = 0;
 800177e:	687b      	ldr	r3, [r7, #4]
 8001780:	2200      	movs	r2, #0
 8001782:	639a      	str	r2, [r3, #56]	; 0x38
    ADCx->SQR4 = 0;
 8001784:	687b      	ldr	r3, [r7, #4]
 8001786:	2200      	movs	r2, #0
 8001788:	63da      	str	r2, [r3, #60]	; 0x3c
    ADCx->JSQR = 0;
 800178a:	687b      	ldr	r3, [r7, #4]
 800178c:	2200      	movs	r2, #0
 800178e:	64da      	str	r2, [r3, #76]	; 0x4c
    ADCx->OFR1 = 0;
 8001790:	687b      	ldr	r3, [r7, #4]
 8001792:	2200      	movs	r2, #0
 8001794:	661a      	str	r2, [r3, #96]	; 0x60
    ADCx->OFR2 = 0;
 8001796:	687b      	ldr	r3, [r7, #4]
 8001798:	2200      	movs	r2, #0
 800179a:	665a      	str	r2, [r3, #100]	; 0x64
    ADCx->OFR3 = 0;
 800179c:	687b      	ldr	r3, [r7, #4]
 800179e:	2200      	movs	r2, #0
 80017a0:	669a      	str	r2, [r3, #104]	; 0x68
    ADCx->OFR4 = 0;
 80017a2:	687b      	ldr	r3, [r7, #4]
 80017a4:	2200      	movs	r2, #0
 80017a6:	66da      	str	r2, [r3, #108]	; 0x6c
}
 80017a8:	bf00      	nop
 80017aa:	370c      	adds	r7, #12
 80017ac:	46bd      	mov	sp, r7
 80017ae:	f85d 7b04 	ldr.w	r7, [sp], #4
 80017b2:	4770      	bx	lr

080017b4 <ADC_Init>:

void ADC_Init(ADC *ADC_struct){
 80017b4:	    b580      	push	{r7, lr}
 80017b6:	    b082      	sub	sp, #8
 80017b8:	    af00      	add	r7, sp, #0
 80017ba:	    6078      	str	r0, [r7, #4]
    ADC_reset_registers(ADC_struct->ADCx);
 80017bc:	    687b      	ldr	r3, [r7, #4]
 80017be:	    681b      	ldr	r3, [r3, #0]
 80017c0:	    4618      	mov	r0, r3
 80017c2:	    f7ff ffaf 	bl	8001724 <ADC_reset_registers>
	RCC->AHB2ENR |= RCC_AHB2ENR_ADCEN;  //     PLLADC1CLK
 80017c6:	    4b78      	ldr	r3, [pc, #480]	; (80019a8 <ADC_Init+0x1f4>)
 80017c8:	    6cdb      	ldr	r3, [r3, #76]	; 0x4c
 80017ca:	    4a77      	ldr	r2, [pc, #476]	; (80019a8 <ADC_Init+0x1f4>)
 80017cc:	    f443 5300 	orr.w	r3, r3, #8192	; 0x2000
 80017d0:	    64d3      	str	r3, [r2, #76]	; 0x4c
	RCC->CCIPR &= ~RCC_CCIPR_ADCSEL;
 80017d2:	    4b75      	ldr	r3, [pc, #468]	; (80019a8 <ADC_Init+0x1f4>)
 80017d4:	    f8d3 3088 	ldr.w	r3, [r3, #136]	; 0x88
 80017d8:	    4a73      	ldr	r2, [pc, #460]	; (80019a8 <ADC_Init+0x1f4>)
 80017da:	    f023 5340 	bic.w	r3, r3, #805306368	; 0x30000000
 80017de:	    f8c2 3088 	str.w	r3, [r2, #136]	; 0x88
	RCC->CCIPR |= 3 << RCC_CCIPR_ADCSEL_Pos;  // set clock source from system clock
 80017e2:	    4b71      	ldr	r3, [pc, #452]	; (80019a8 <ADC_Init+0x1f4>)
 80017e4:	    f8d3 3088 	ldr.w	r3, [r3, #136]	; 0x88
 80017e8:	    4a6f      	ldr	r2, [pc, #444]	; (80019a8 <ADC_Init+0x1f4>)
 80017ea:	    f043 5340 	orr.w	r3, r3, #805306368	; 0x30000000
 80017ee:	    f8c2 3088 	str.w	r3, [r2, #136]	; 0x88

	ADC_struct->ADCx->CR &= ~ADC_CR_DEEPPWD;  // Bring the ADC out of 'deep power-down' mode.
 80017f2:	    687b      	ldr	r3, [r7, #4]
 80017f4:	    681b      	ldr	r3, [r3, #0]
 80017f6:	    689a      	ldr	r2, [r3, #8]
 80017f8:	    687b      	ldr	r3, [r7, #4]
 80017fa:	    681b      	ldr	r3, [r3, #0]
 80017fc:	    f022 5200 	bic.w	r2, r2, #536870912	; 0x20000000
 8001800:	    609a      	str	r2, [r3, #8]
	ADC_struct->ADCx->CR |= ADC_CR_ADVREGEN;  // Enable the ADC voltage regulator.
 8001802:	    687b      	ldr	r3, [r7, #4]
 8001804:	    681b      	ldr	r3, [r3, #0]
 8001806:	    689a      	ldr	r2, [r3, #8]
 8001808:	    687b      	ldr	r3, [r7, #4]
 800180a:	    681b      	ldr	r3, [r3, #0]
 800180c:	    f042 5280 	orr.w	r2, r2, #268435456	; 0x10000000
 8001810:	    609a      	str	r2, [r3, #8]
	Delay(30);  // Delay for a handful of microseconds.
 8001812:	    201e      	movs	r0, #30
 8001814:	    f004 f9de 	bl	8005bd4 <Delay>
	ADC_struct->ADCx->CR |= ADC_CR_ADCAL;  // Calibrate the ADC.
 8001818:	    687b      	ldr	r3, [r7, #4]
 800181a:	    681b      	ldr	r3, [r3, #0]
 800181c:	    689a      	ldr	r2, [r3, #8]
 800181e:	    687b      	ldr	r3, [r7, #4]
 8001820:	    681b      	ldr	r3, [r3, #0]
 8001822:	    f042 4200 	orr.w	r2, r2, #2147483648	; 0x80000000
 8001826:	    609a      	str	r2, [r3, #8]
	while (ADC_struct->ADCx->CR & ADC_CR_ADCAL);
 8001828:	    bf00      	nop
 800182a:	/-> 687b      	ldr	r3, [r7, #4]
 800182c:	|   681b      	ldr	r3, [r3, #0]
 800182e:	|   689b      	ldr	r3, [r3, #8]
 8001830:	|   2b00      	cmp	r3, #0
 8001832:	\-- dbfa      	blt.n	800182a <ADC_Init+0x76>

    ADC_struct->ADCx->CFGR |= ADC_struct->mode << ADC_CFGR_CONT_Pos;  // continuous or single mode
 8001834:	    687b      	ldr	r3, [r7, #4]
 8001836:	    681b      	ldr	r3, [r3, #0]
 8001838:	    68da      	ldr	r2, [r3, #12]
 800183a:	    687b      	ldr	r3, [r7, #4]
 800183c:	    f893 30c7 	ldrb.w	r3, [r3, #199]	; 0xc7
 8001840:	    035b      	lsls	r3, r3, #13
 8001842:	    4619      	mov	r1, r3
 8001844:	    687b      	ldr	r3, [r7, #4]
 8001846:	    681b      	ldr	r3, [r3, #0]
 8001848:	    430a      	orrs	r2, r1
 800184a:	    60da      	str	r2, [r3, #12]
    ADC_struct->ADCx->CFGR |= ADC_CFGR_OVRMOD;  // data will be always actual
 800184c:	    687b      	ldr	r3, [r7, #4]
 800184e:	    681b      	ldr	r3, [r3, #0]
 8001850:	    68da      	ldr	r2, [r3, #12]
 8001852:	    687b      	ldr	r3, [r7, #4]
 8001854:	    681b      	ldr	r3, [r3, #0]
 8001856:	    f442 5280 	orr.w	r2, r2, #4096	; 0x1000
 800185a:	    60da      	str	r2, [r3, #12]
    ADC_struct->ADCx->CFGR |= ADC_CFGR_JQDIS;  // Injected Queue disabled
 800185c:	    687b      	ldr	r3, [r7, #4]
 800185e:	    681b      	ldr	r3, [r3, #0]
 8001860:	    68da      	ldr	r2, [r3, #12]
 8001862:	    687b      	ldr	r3, [r7, #4]
 8001864:	    681b      	ldr	r3, [r3, #0]
 8001866:	    f042 4200 	orr.w	r2, r2, #2147483648	; 0x80000000
 800186a:	    60da      	str	r2, [r3, #12]
    ADC_struct->ADCx->CFGR |= ADC_CFGR_AUTDLY;
 800186c:	    687b      	ldr	r3, [r7, #4]
 800186e:	    681b      	ldr	r3, [r3, #0]
 8001870:	    68da      	ldr	r2, [r3, #12]
 8001872:	    687b      	ldr	r3, [r7, #4]
 8001874:	    681b      	ldr	r3, [r3, #0]
 8001876:	    f442 4280 	orr.w	r2, r2, #16384	; 0x4000
 800187a:	    60da      	str	r2, [r3, #12]
    ADC_struct->ADCx->CFGR |= ADC_struct->trigger.polarity << ADC_CFGR_EXTEN_Pos;
 800187c:	    687b      	ldr	r3, [r7, #4]
 800187e:	    681b      	ldr	r3, [r3, #0]
 8001880:	    68da      	ldr	r2, [r3, #12]
 8001882:	    687b      	ldr	r3, [r7, #4]
 8001884:	    f893 30ca 	ldrb.w	r3, [r3, #202]	; 0xca
 8001888:	    029b      	lsls	r3, r3, #10
 800188a:	    4619      	mov	r1, r3
 800188c:	    687b      	ldr	r3, [r7, #4]
 800188e:	    681b      	ldr	r3, [r3, #0]
 8001890:	    430a      	orrs	r2, r1
 8001892:	    60da      	str	r2, [r3, #12]
    ADC_struct->ADCx->CFGR |= ADC_struct->trigger.exti_channel << ADC_CFGR_EXTSEL_Pos;
 8001894:	    687b      	ldr	r3, [r7, #4]
 8001896:	    681b      	ldr	r3, [r3, #0]
 8001898:	    68da      	ldr	r2, [r3, #12]
 800189a:	    687b      	ldr	r3, [r7, #4]
 800189c:	    f893 30c9 	ldrb.w	r3, [r3, #201]	; 0xc9
 80018a0:	    019b      	lsls	r3, r3, #6
 80018a2:	    4619      	mov	r1, r3
 80018a4:	    687b      	ldr	r3, [r7, #4]
 80018a6:	    681b      	ldr	r3, [r3, #0]
 80018a8:	    430a      	orrs	r2, r1
 80018aa:	    60da      	str	r2, [r3, #12]
    ADC_struct->ADCx->CFGR |= ADC_struct->resolution << ADC_CFGR_RES_Pos;
 80018ac:	    687b      	ldr	r3, [r7, #4]
 80018ae:	    681b      	ldr	r3, [r3, #0]
 80018b0:	    68da      	ldr	r2, [r3, #12]
 80018b2:	    687b      	ldr	r3, [r7, #4]
 80018b4:	    f893 30c8 	ldrb.w	r3, [r3, #200]	; 0xc8
 80018b8:	    00db      	lsls	r3, r3, #3
 80018ba:	    4619      	mov	r1, r3
 80018bc:	    687b      	ldr	r3, [r7, #4]
 80018be:	    681b      	ldr	r3, [r3, #0]
 80018c0:	    430a      	orrs	r2, r1
 80018c2:	    60da      	str	r2, [r3, #12]

    // enable internal channels
    if(ADC_struct->internal_channels.vref) ADC1_COMMON->CCR |= ADC_CCR_VREFEN;  // CH0
 80018c4:	    687b      	ldr	r3, [r7, #4]
 80018c6:	    f893 30c4 	ldrb.w	r3, [r3, #196]	; 0xc4
 80018ca:	    2b00      	cmp	r3, #0
 80018cc:	/-- d005      	beq.n	80018da <ADC_Init+0x126>
 80018ce:	|   4b37      	ldr	r3, [pc, #220]	; (80019ac <ADC_Init+0x1f8>)
 80018d0:	|   689b      	ldr	r3, [r3, #8]
 80018d2:	|   4a36      	ldr	r2, [pc, #216]	; (80019ac <ADC_Init+0x1f8>)
 80018d4:	|   f443 0380 	orr.w	r3, r3, #4194304	; 0x400000
 80018d8:	|   6093      	str	r3, [r2, #8]
    if(ADC_struct->internal_channels.vbat) ADC1_COMMON->CCR |= ADC_CCR_VBATEN;  // CH18
 80018da:	\-> 687b      	ldr	r3, [r7, #4]
 80018dc:	    f893 30c6 	ldrb.w	r3, [r3, #198]	; 0xc6
 80018e0:	    2b00      	cmp	r3, #0
 80018e2:	/-- d005      	beq.n	80018f0 <ADC_Init+0x13c>
 80018e4:	|   4b31      	ldr	r3, [pc, #196]	; (80019ac <ADC_Init+0x1f8>)
 80018e6:	|   689b      	ldr	r3, [r3, #8]
 80018e8:	|   4a30      	ldr	r2, [pc, #192]	; (80019ac <ADC_Init+0x1f8>)
 80018ea:	|   f043 7380 	orr.w	r3, r3, #16777216	; 0x1000000
 80018ee:	|   6093      	str	r3, [r2, #8]
    if(ADC_struct->internal_channels.temp) ADC1_COMMON->CCR |= ADC_CCR_TSEN;    // CH17
 80018f0:	\-> 687b      	ldr	r3, [r7, #4]
 80018f2:	    f893 30c5 	ldrb.w	r3, [r3, #197]	; 0xc5
 80018f6:	    2b00      	cmp	r3, #0
 80018f8:	/-- d005      	beq.n	8001906 <ADC_Init+0x152>
 80018fa:	|   4b2c      	ldr	r3, [pc, #176]	; (80019ac <ADC_Init+0x1f8>)
 80018fc:	|   689b      	ldr	r3, [r3, #8]
 80018fe:	|   4a2b      	ldr	r2, [pc, #172]	; (80019ac <ADC_Init+0x1f8>)
 8001900:	|   f443 0300 	orr.w	r3, r3, #8388608	; 0x800000
 8001904:	|   6093      	str	r3, [r2, #8]

    // enable oversampling
    if(ADC_struct->ovrsmpl_ratio != OVRSMPL_Disable){
 8001906:	\-> 687b      	ldr	r3, [r7, #4]
 8001908:	    f893 30cb 	ldrb.w	r3, [r3, #203]	; 0xcb
 800190c:	    2b00      	cmp	r3, #0
 800190e:	/-- d020      	beq.n	8001952 <ADC_Init+0x19e>
        // ADC_struct->ADCx->CFGR2 |= ADC_CFGR2_JOVSE;
        ADC_struct->ADCx->CFGR2 |= ADC_CFGR2_ROVSE;  // Regular channels Oversampling Enable
 8001910:	|   687b      	ldr	r3, [r7, #4]
 8001912:	|   681b      	ldr	r3, [r3, #0]
 8001914:	|   691a      	ldr	r2, [r3, #16]
 8001916:	|   687b      	ldr	r3, [r7, #4]
 8001918:	|   681b      	ldr	r3, [r3, #0]
 800191a:	|   f042 0201 	orr.w	r2, r2, #1
 800191e:	|   611a      	str	r2, [r3, #16]
        ADC_struct->ADCx->CFGR2 |= (ADC_struct->ovrsmpl_ratio - 1) << ADC_CFGR2_OVSR_Pos;
 8001920:	|   687b      	ldr	r3, [r7, #4]
 8001922:	|   681b      	ldr	r3, [r3, #0]
 8001924:	|   691a      	ldr	r2, [r3, #16]
 8001926:	|   687b      	ldr	r3, [r7, #4]
 8001928:	|   f893 30cb 	ldrb.w	r3, [r3, #203]	; 0xcb
 800192c:	|   3b01      	subs	r3, #1
 800192e:	|   009b      	lsls	r3, r3, #2
 8001930:	|   4619      	mov	r1, r3
 8001932:	|   687b      	ldr	r3, [r7, #4]
 8001934:	|   681b      	ldr	r3, [r3, #0]
 8001936:	|   430a      	orrs	r2, r1
 8001938:	|   611a      	str	r2, [r3, #16]
        ADC_struct->ADCx->CFGR2 |= (ADC_struct->ovrsmpl_ratio) << ADC_CFGR2_OVSS_Pos;
 800193a:	|   687b      	ldr	r3, [r7, #4]
 800193c:	|   681b      	ldr	r3, [r3, #0]
 800193e:	|   691a      	ldr	r2, [r3, #16]
 8001940:	|   687b      	ldr	r3, [r7, #4]
 8001942:	|   f893 30cb 	ldrb.w	r3, [r3, #203]	; 0xcb
 8001946:	|   015b      	lsls	r3, r3, #5
 8001948:	|   4619      	mov	r1, r3
 800194a:	|   687b      	ldr	r3, [r7, #4]
 800194c:	|   681b      	ldr	r3, [r3, #0]
 800194e:	|   430a      	orrs	r2, r1
 8001950:	|   611a      	str	r2, [r3, #16]
    }

    ADC_struct->vrefinternal_cal = 3000 * (*(uint16_t*)0x1FFF75AA);
 8001952:	\-> 4b17      	ldr	r3, [pc, #92]	; (80019b0 <ADC_Init+0x1fc>)
 8001954:	    881b      	ldrh	r3, [r3, #0]
 8001956:	    461a      	mov	r2, r3
 8001958:	    f640 33b8 	movw	r3, #3000	; 0xbb8
 800195c:	    fb02 f303 	mul.w	r3, r2, r3
 8001960:	    461a      	mov	r2, r3
 8001962:	    687b      	ldr	r3, [r7, #4]
 8001964:	    f8c3 20d0 	str.w	r2, [r3, #208]	; 0xd0
    ADC_struct->reg_ch_queue_pointer = 0;
 8001968:	    687b      	ldr	r3, [r7, #4]
 800196a:	    2200      	movs	r2, #0
 800196c:	    f883 20d4 	strb.w	r2, [r3, #212]	; 0xd4
    ADC_struct->reg_ch_amount = 0;
 8001970:	    687b      	ldr	r3, [r7, #4]
 8001972:	    2200      	movs	r2, #0
 8001974:	    f883 20cd 	strb.w	r2, [r3, #205]	; 0xcd

    // enable interrupts
    ADC_struct->ADCx->IER |= ADC_IER_EOCIE | ADC_IER_EOSIE;
 8001978:	    687b      	ldr	r3, [r7, #4]
 800197a:	    681b      	ldr	r3, [r3, #0]
 800197c:	    685a      	ldr	r2, [r3, #4]
 800197e:	    687b      	ldr	r3, [r7, #4]
 8001980:	    681b      	ldr	r3, [r3, #0]
 8001982:	    f042 020c 	orr.w	r2, r2, #12
 8001986:	    605a      	str	r2, [r3, #4]
    ADC_struct->ADCx->IER |= ADC_IER_JEOSIE; // | ADC_IER_JEOCIE;
 8001988:	    687b      	ldr	r3, [r7, #4]
 800198a:	    681b      	ldr	r3, [r3, #0]
 800198c:	    685a      	ldr	r2, [r3, #4]
 800198e:	    687b      	ldr	r3, [r7, #4]
 8001990:	    681b      	ldr	r3, [r3, #0]
 8001992:	    f042 0240 	orr.w	r2, r2, #64	; 0x40
 8001996:	    605a      	str	r2, [r3, #4]
    NVIC_EnableIRQ(ADC1_2_IRQn);
 8001998:	    2012      	movs	r0, #18
 800199a:	    f7ff fea5 	bl	80016e8 <__NVIC_EnableIRQ>

}
 800199e:	    bf00      	nop
 80019a0:	    3708      	adds	r7, #8
 80019a2:	    46bd      	mov	sp, r7
 80019a4:	    bd80      	pop	{r7, pc}
 80019a6:	    bf00      	nop
 80019a8:	    1000      	asrs	r0, r0, #32
 80019aa:	    4002      	ands	r2, r0
 80019ac:	    0300      	lsls	r0, r0, #12
 80019ae:	    5004      	str	r4, [r0, r0]
 80019b0:	    75aa      	strb	r2, [r5, #22]
 80019b2:	    1fff      	subs	r7, r7, #7

080019b4 <ADC_InitRegChannel>:

void ADC_InitRegChannel(ADC *ADC_struct, ADC_ChannelNum ch_num, GPIO_Pin gpio, ADC_CH_SMP_Time smp_time){
 80019b4:	       b580      	push	{r7, lr}
 80019b6:	       b084      	sub	sp, #16
 80019b8:	       af02      	add	r7, sp, #8
 80019ba:	       6078      	str	r0, [r7, #4]
 80019bc:	       4608      	mov	r0, r1
 80019be:	       4611      	mov	r1, r2
 80019c0:	       461a      	mov	r2, r3
 80019c2:	       4603      	mov	r3, r0
 80019c4:	       70fb      	strb	r3, [r7, #3]
 80019c6:	       460b      	mov	r3, r1
 80019c8:	       70bb      	strb	r3, [r7, #2]
 80019ca:	       4613      	mov	r3, r2
 80019cc:	       707b      	strb	r3, [r7, #1]
	if(gpio != uninitialized)
 80019ce:	       78bb      	ldrb	r3, [r7, #2]
 80019d0:	       2b00      	cmp	r3, #0
 80019d2:	   /-- d007      	beq.n	80019e4 <ADC_InitRegChannel+0x30>
        gpio_init(gpio, Analog_mode, Open_drain, no_pull, Input);
 80019d4:	   |   78b8      	ldrb	r0, [r7, #2]
 80019d6:	   |   2304      	movs	r3, #4
 80019d8:	   |   9300      	str	r3, [sp, #0]
 80019da:	   |   2300      	movs	r3, #0
 80019dc:	   |   2201      	movs	r2, #1
 80019de:	   |   2103      	movs	r1, #3
 80019e0:	   |   f000 f9fa 	bl	8001dd8 <gpio_init>
    ADC_struct->reg_channel_queue[ADC_struct->reg_ch_amount].ch_num = ch_num;
 80019e4:	   \-> 687b      	ldr	r3, [r7, #4]
 80019e6:	       f893 30cd 	ldrb.w	r3, [r3, #205]	; 0xcd
 80019ea:	       4619      	mov	r1, r3
 80019ec:	       687a      	ldr	r2, [r7, #4]
 80019ee:	       460b      	mov	r3, r1
 80019f0:	       005b      	lsls	r3, r3, #1
 80019f2:	       440b      	add	r3, r1
 80019f4:	       009b      	lsls	r3, r3, #2
 80019f6:	       4413      	add	r3, r2
 80019f8:	       3304      	adds	r3, #4
 80019fa:	       78fa      	ldrb	r2, [r7, #3]
 80019fc:	       701a      	strb	r2, [r3, #0]
    ADC_struct->reg_channel_queue[ADC_struct->reg_ch_amount].pin = gpio;
 80019fe:	       687b      	ldr	r3, [r7, #4]
 8001a00:	       f893 30cd 	ldrb.w	r3, [r3, #205]	; 0xcd
 8001a04:	       4619      	mov	r1, r3
 8001a06:	       687a      	ldr	r2, [r7, #4]
 8001a08:	       460b      	mov	r3, r1
 8001a0a:	       005b      	lsls	r3, r3, #1
 8001a0c:	       440b      	add	r3, r1
 8001a0e:	       009b      	lsls	r3, r3, #2
 8001a10:	       4413      	add	r3, r2
 8001a12:	       3305      	adds	r3, #5
 8001a14:	       78ba      	ldrb	r2, [r7, #2]
 8001a16:	       701a      	strb	r2, [r3, #0]
    ADC_struct->reg_channel_queue[ADC_struct->reg_ch_amount].group = ADC_CH_Regular;
 8001a18:	       687b      	ldr	r3, [r7, #4]
 8001a1a:	       f893 30cd 	ldrb.w	r3, [r3, #205]	; 0xcd
 8001a1e:	       4619      	mov	r1, r3
 8001a20:	       687a      	ldr	r2, [r7, #4]
 8001a22:	       460b      	mov	r3, r1
 8001a24:	       005b      	lsls	r3, r3, #1
 8001a26:	       440b      	add	r3, r1
 8001a28:	       009b      	lsls	r3, r3, #2
 8001a2a:	       4413      	add	r3, r2
 8001a2c:	       3306      	adds	r3, #6
 8001a2e:	       2201      	movs	r2, #1
 8001a30:	       701a      	strb	r2, [r3, #0]
    ADC_struct->reg_channel_queue[ADC_struct->reg_ch_amount].smp_time = smp_time;
 8001a32:	       687b      	ldr	r3, [r7, #4]
 8001a34:	       f893 30cd 	ldrb.w	r3, [r3, #205]	; 0xcd
 8001a38:	       4619      	mov	r1, r3
 8001a3a:	       687a      	ldr	r2, [r7, #4]
 8001a3c:	       460b      	mov	r3, r1
 8001a3e:	       005b      	lsls	r3, r3, #1
 8001a40:	       440b      	add	r3, r1
 8001a42:	       009b      	lsls	r3, r3, #2
 8001a44:	       4413      	add	r3, r2
 8001a46:	       3307      	adds	r3, #7
 8001a48:	       787a      	ldrb	r2, [r7, #1]
 8001a4a:	       701a      	strb	r2, [r3, #0]
    ch_num--;
 8001a4c:	       78fb      	ldrb	r3, [r7, #3]
 8001a4e:	       3b01      	subs	r3, #1
 8001a50:	       70fb      	strb	r3, [r7, #3]
    if (ch_num <= 9) {
 8001a52:	       78fb      	ldrb	r3, [r7, #3]
 8001a54:	       2b09      	cmp	r3, #9
 8001a56:	   /-- d80f      	bhi.n	8001a78 <ADC_InitRegChannel+0xc4>
		ADC_struct->ADCx->SMPR1 |= (smp_time << (ch_num * 3));
 8001a58:	   |   687b      	ldr	r3, [r7, #4]
 8001a5a:	   |   681b      	ldr	r3, [r3, #0]
 8001a5c:	   |   6959      	ldr	r1, [r3, #20]
 8001a5e:	   |   7878      	ldrb	r0, [r7, #1]
 8001a60:	   |   78fa      	ldrb	r2, [r7, #3]
 8001a62:	   |   4613      	mov	r3, r2
 8001a64:	   |   005b      	lsls	r3, r3, #1
 8001a66:	   |   4413      	add	r3, r2
 8001a68:	   |   fa00 f303 	lsl.w	r3, r0, r3
 8001a6c:	   |   461a      	mov	r2, r3
 8001a6e:	   |   687b      	ldr	r3, [r7, #4]
 8001a70:	   |   681b      	ldr	r3, [r3, #0]
 8001a72:	   |   430a      	orrs	r2, r1
 8001a74:	   |   615a      	str	r2, [r3, #20]
 8001a76:	/--|-- e00f      	b.n	8001a98 <ADC_InitRegChannel+0xe4>
	} else {
		ADC_struct->ADCx->SMPR2 |= (smp_time << ((ch_num * 3) - 30));
 8001a78:	|  \-> 687b      	ldr	r3, [r7, #4]
 8001a7a:	|      681b      	ldr	r3, [r3, #0]
 8001a7c:	|      6999      	ldr	r1, [r3, #24]
 8001a7e:	|      7878      	ldrb	r0, [r7, #1]
 8001a80:	|      78fa      	ldrb	r2, [r7, #3]
 8001a82:	|      4613      	mov	r3, r2
 8001a84:	|      005b      	lsls	r3, r3, #1
 8001a86:	|      4413      	add	r3, r2
 8001a88:	|      3b1e      	subs	r3, #30
 8001a8a:	|      fa00 f303 	lsl.w	r3, r0, r3
 8001a8e:	|      461a      	mov	r2, r3
 8001a90:	|      687b      	ldr	r3, [r7, #4]
 8001a92:	|      681b      	ldr	r3, [r3, #0]
 8001a94:	|      430a      	orrs	r2, r1
 8001a96:	|      619a      	str	r2, [r3, #24]
	}
    ADC_struct->reg_ch_amount++;
 8001a98:	\----> 687b      	ldr	r3, [r7, #4]
 8001a9a:	       f893 30cd 	ldrb.w	r3, [r3, #205]	; 0xcd
 8001a9e:	       3301      	adds	r3, #1
 8001aa0:	       b2da      	uxtb	r2, r3
 8001aa2:	       687b      	ldr	r3, [r7, #4]
 8001aa4:	       f883 20cd 	strb.w	r2, [r3, #205]	; 0xcd
    ADC_struct->ADCx->SQR1 &= ~0x0F;
 8001aa8:	       687b      	ldr	r3, [r7, #4]
 8001aaa:	       681b      	ldr	r3, [r3, #0]
 8001aac:	       6b1a      	ldr	r2, [r3, #48]	; 0x30
 8001aae:	       687b      	ldr	r3, [r7, #4]
 8001ab0:	       681b      	ldr	r3, [r3, #0]
 8001ab2:	       f022 020f 	bic.w	r2, r2, #15
 8001ab6:	       631a      	str	r2, [r3, #48]	; 0x30
    ADC_struct->ADCx->SQR1 |= (ADC_struct->reg_ch_amount) << ADC_SQR1_L_Pos;
 8001ab8:	       687b      	ldr	r3, [r7, #4]
 8001aba:	       681b      	ldr	r3, [r3, #0]
 8001abc:	       6b1a      	ldr	r2, [r3, #48]	; 0x30
 8001abe:	       687b      	ldr	r3, [r7, #4]
 8001ac0:	       f893 30cd 	ldrb.w	r3, [r3, #205]	; 0xcd
 8001ac4:	       4619      	mov	r1, r3
 8001ac6:	       687b      	ldr	r3, [r7, #4]
 8001ac8:	       681b      	ldr	r3, [r3, #0]
 8001aca:	       430a      	orrs	r2, r1
 8001acc:	       631a      	str	r2, [r3, #48]	; 0x30
    if(ADC_struct->reg_ch_amount <= 4)
 8001ace:	       687b      	ldr	r3, [r7, #4]
 8001ad0:	       f893 30cd 	ldrb.w	r3, [r3, #205]	; 0xcd
 8001ad4:	       2b04      	cmp	r3, #4
 8001ad6:	   /-- d813      	bhi.n	8001b00 <ADC_InitRegChannel+0x14c>
        ADC_struct->ADCx->SQR1 |= ch_num << (ADC_struct->reg_ch_amount * 6);
 8001ad8:	   |   687b      	ldr	r3, [r7, #4]
 8001ada:	   |   681b      	ldr	r3, [r3, #0]
 8001adc:	   |   6b1a      	ldr	r2, [r3, #48]	; 0x30
 8001ade:	   |   78f9      	ldrb	r1, [r7, #3]
 8001ae0:	   |   687b      	ldr	r3, [r7, #4]
 8001ae2:	   |   f893 30cd 	ldrb.w	r3, [r3, #205]	; 0xcd
 8001ae6:	   |   4618      	mov	r0, r3
 8001ae8:	   |   4603      	mov	r3, r0
 8001aea:	   |   005b      	lsls	r3, r3, #1
 8001aec:	   |   4403      	add	r3, r0
 8001aee:	   |   005b      	lsls	r3, r3, #1
 8001af0:	   |   fa01 f303 	lsl.w	r3, r1, r3
 8001af4:	   |   4619      	mov	r1, r3
 8001af6:	   |   687b      	ldr	r3, [r7, #4]
 8001af8:	   |   681b      	ldr	r3, [r3, #0]
 8001afa:	   |   430a      	orrs	r2, r1
 8001afc:	   |   631a      	str	r2, [r3, #48]	; 0x30
        ADC_struct->ADCx->SQR2 |= ch_num << ((ADC_struct->reg_ch_amount * 6) - 30);
    else if(ADC_struct->reg_ch_amount <= 14)
        ADC_struct->ADCx->SQR3 |= ch_num << ((ADC_struct->reg_ch_amount * 6) - 60);
    else if(ADC_struct->reg_ch_amount <= 16)
        ADC_struct->ADCx->SQR4 |= ch_num << ((ADC_struct->reg_ch_amount * 6) - 90);
}
 8001afe:	/--|-- e04c      	b.n	8001b9a <ADC_InitRegChannel+0x1e6>
    else if(ADC_struct->reg_ch_amount <= 9)
 8001b00:	|  \-> 687b      	ldr	r3, [r7, #4]
 8001b02:	|      f893 30cd 	ldrb.w	r3, [r3, #205]	; 0xcd
 8001b06:	|      2b09      	cmp	r3, #9
 8001b08:	|  /-- d814      	bhi.n	8001b34 <ADC_InitRegChannel+0x180>
        ADC_struct->ADCx->SQR2 |= ch_num << ((ADC_struct->reg_ch_amount * 6) - 30);
 8001b0a:	|  |   687b      	ldr	r3, [r7, #4]
 8001b0c:	|  |   681b      	ldr	r3, [r3, #0]
 8001b0e:	|  |   6b5a      	ldr	r2, [r3, #52]	; 0x34
 8001b10:	|  |   78f9      	ldrb	r1, [r7, #3]
 8001b12:	|  |   687b      	ldr	r3, [r7, #4]
 8001b14:	|  |   f893 30cd 	ldrb.w	r3, [r3, #205]	; 0xcd
 8001b18:	|  |   4618      	mov	r0, r3
 8001b1a:	|  |   4603      	mov	r3, r0
 8001b1c:	|  |   005b      	lsls	r3, r3, #1
 8001b1e:	|  |   4403      	add	r3, r0
 8001b20:	|  |   005b      	lsls	r3, r3, #1
 8001b22:	|  |   3b1e      	subs	r3, #30
 8001b24:	|  |   fa01 f303 	lsl.w	r3, r1, r3
 8001b28:	|  |   4619      	mov	r1, r3
 8001b2a:	|  |   687b      	ldr	r3, [r7, #4]
 8001b2c:	|  |   681b      	ldr	r3, [r3, #0]
 8001b2e:	|  |   430a      	orrs	r2, r1
 8001b30:	|  |   635a      	str	r2, [r3, #52]	; 0x34
}
 8001b32:	+--|-- e032      	b.n	8001b9a <ADC_InitRegChannel+0x1e6>
    else if(ADC_struct->reg_ch_amount <= 14)
 8001b34:	|  \-> 687b      	ldr	r3, [r7, #4]
 8001b36:	|      f893 30cd 	ldrb.w	r3, [r3, #205]	; 0xcd
 8001b3a:	|      2b0e      	cmp	r3, #14
 8001b3c:	|  /-- d814      	bhi.n	8001b68 <ADC_InitRegChannel+0x1b4>
        ADC_struct->ADCx->SQR3 |= ch_num << ((ADC_struct->reg_ch_amount * 6) - 60);
 8001b3e:	|  |   687b      	ldr	r3, [r7, #4]
 8001b40:	|  |   681b      	ldr	r3, [r3, #0]
 8001b42:	|  |   6b9a      	ldr	r2, [r3, #56]	; 0x38
 8001b44:	|  |   78f9      	ldrb	r1, [r7, #3]
 8001b46:	|  |   687b      	ldr	r3, [r7, #4]
 8001b48:	|  |   f893 30cd 	ldrb.w	r3, [r3, #205]	; 0xcd
 8001b4c:	|  |   4618      	mov	r0, r3
 8001b4e:	|  |   4603      	mov	r3, r0
 8001b50:	|  |   005b      	lsls	r3, r3, #1
 8001b52:	|  |   4403      	add	r3, r0
 8001b54:	|  |   005b      	lsls	r3, r3, #1
 8001b56:	|  |   3b3c      	subs	r3, #60	; 0x3c
 8001b58:	|  |   fa01 f303 	lsl.w	r3, r1, r3
 8001b5c:	|  |   4619      	mov	r1, r3
 8001b5e:	|  |   687b      	ldr	r3, [r7, #4]
 8001b60:	|  |   681b      	ldr	r3, [r3, #0]
 8001b62:	|  |   430a      	orrs	r2, r1
 8001b64:	|  |   639a      	str	r2, [r3, #56]	; 0x38
}
 8001b66:	+--|-- e018      	b.n	8001b9a <ADC_InitRegChannel+0x1e6>
    else if(ADC_struct->reg_ch_amount <= 16)
 8001b68:	|  \-> 687b      	ldr	r3, [r7, #4]
 8001b6a:	|      f893 30cd 	ldrb.w	r3, [r3, #205]	; 0xcd
 8001b6e:	|      2b10      	cmp	r3, #16
 8001b70:	+----- d813      	bhi.n	8001b9a <ADC_InitRegChannel+0x1e6>
        ADC_struct->ADCx->SQR4 |= ch_num << ((ADC_struct->reg_ch_amount * 6) - 90);
 8001b72:	|      687b      	ldr	r3, [r7, #4]
 8001b74:	|      681b      	ldr	r3, [r3, #0]
 8001b76:	|      6bda      	ldr	r2, [r3, #60]	; 0x3c
 8001b78:	|      78f9      	ldrb	r1, [r7, #3]
 8001b7a:	|      687b      	ldr	r3, [r7, #4]
 8001b7c:	|      f893 30cd 	ldrb.w	r3, [r3, #205]	; 0xcd
 8001b80:	|      4618      	mov	r0, r3
 8001b82:	|      4603      	mov	r3, r0
 8001b84:	|      005b      	lsls	r3, r3, #1
 8001b86:	|      4403      	add	r3, r0
 8001b88:	|      005b      	lsls	r3, r3, #1
 8001b8a:	|      3b5a      	subs	r3, #90	; 0x5a
 8001b8c:	|      fa01 f303 	lsl.w	r3, r1, r3
 8001b90:	|      4619      	mov	r1, r3
 8001b92:	|      687b      	ldr	r3, [r7, #4]
 8001b94:	|      681b      	ldr	r3, [r3, #0]
 8001b96:	|      430a      	orrs	r2, r1
 8001b98:	|      63da      	str	r2, [r3, #60]	; 0x3c
}
 8001b9a:	\----> bf00      	nop
 8001b9c:	       3708      	adds	r7, #8
 8001b9e:	       46bd      	mov	sp, r7
 8001ba0:	       bd80      	pop	{r7, pc}

08001ba2 <ADC_Start>:

void ADC_Start(ADC *ADC_struct){
 8001ba2:	b480      	push	{r7}
 8001ba4:	b083      	sub	sp, #12
 8001ba6:	af00      	add	r7, sp, #0
 8001ba8:	6078      	str	r0, [r7, #4]
    ADC_struct->ADCx->CR |= ADC_CR_ADSTART;
 8001baa:	687b      	ldr	r3, [r7, #4]
 8001bac:	681b      	ldr	r3, [r3, #0]
 8001bae:	689a      	ldr	r2, [r3, #8]
 8001bb0:	687b      	ldr	r3, [r7, #4]
 8001bb2:	681b      	ldr	r3, [r3, #0]
 8001bb4:	f042 0204 	orr.w	r2, r2, #4
 8001bb8:	609a      	str	r2, [r3, #8]
    ADC_struct->measure_process = 1;
 8001bba:	687b      	ldr	r3, [r7, #4]
 8001bbc:	2201      	movs	r2, #1
 8001bbe:	f883 20d8 	strb.w	r2, [r3, #216]	; 0xd8
}
 8001bc2:	bf00      	nop
 8001bc4:	370c      	adds	r7, #12
 8001bc6:	46bd      	mov	sp, r7
 8001bc8:	f85d 7b04 	ldr.w	r7, [sp], #4
 8001bcc:	4770      	bx	lr

08001bce <ADC_Disable>:

void ADC_Disable(ADC *ADC_struct){
 8001bce:	b480      	push	{r7}
 8001bd0:	b083      	sub	sp, #12
 8001bd2:	af00      	add	r7, sp, #0
 8001bd4:	6078      	str	r0, [r7, #4]

}
 8001bd6:	bf00      	nop
 8001bd8:	370c      	adds	r7, #12
 8001bda:	46bd      	mov	sp, r7
 8001bdc:	f85d 7b04 	ldr.w	r7, [sp], #4
 8001be0:	4770      	bx	lr

08001be2 <ADC_Handler>:
// void ADC_StartConversion(ADC *ADC_struct){
//     ADC_struct->ADCx->CR |= ADC_CR_ADSTART;
// }

void ADC_Handler(){
 8001be2:	             b480      	push	{r7}
 8001be4:	             b083      	sub	sp, #12
 8001be6:	             af00      	add	r7, sp, #0
    if(adc.ADCx->ISR & ADC_ISR_ADRDY){
 8001be8:	             4b54      	ldr	r3, [pc, #336]	; (8001d3c <ADC_Handler+0x15a>)
 8001bea:	             681b      	ldr	r3, [r3, #0]
 8001bec:	             681b      	ldr	r3, [r3, #0]
 8001bee:	             f003 0301 	and.w	r3, r3, #1
 8001bf2:	             2b00      	cmp	r3, #0
 8001bf4:	         /-- d007      	beq.n	8001c06 <ADC_Handler+0x24>
        adc.ADCx->ISR |= ADC_ISR_ADRDY;
 8001bf6:	         |   4b51      	ldr	r3, [pc, #324]	; (8001d3c <ADC_Handler+0x15a>)
 8001bf8:	         |   681b      	ldr	r3, [r3, #0]
 8001bfa:	         |   681a      	ldr	r2, [r3, #0]
 8001bfc:	         |   4b4f      	ldr	r3, [pc, #316]	; (8001d3c <ADC_Handler+0x15a>)
 8001bfe:	         |   681b      	ldr	r3, [r3, #0]
 8001c00:	         |   f042 0201 	orr.w	r2, r2, #1
 8001c04:	         |   601a      	str	r2, [r3, #0]
    }
    if(adc.ADCx->ISR & ADC_ISR_EOC){  // Inside the regular sequence, after each conversion is complete
 8001c06:	         \-> 4b4d      	ldr	r3, [pc, #308]	; (8001d3c <ADC_Handler+0x15a>)
 8001c08:	             681b      	ldr	r3, [r3, #0]
 8001c0a:	             681b      	ldr	r3, [r3, #0]
 8001c0c:	             f003 0304 	and.w	r3, r3, #4
 8001c10:	             2b00      	cmp	r3, #0
 8001c12:	         /-- d018      	beq.n	8001c46 <ADC_Handler+0x64>
        uint16_t result = adc.ADCx->DR;
 8001c14:	         |   4b49      	ldr	r3, [pc, #292]	; (8001d3c <ADC_Handler+0x15a>)
 8001c16:	         |   681b      	ldr	r3, [r3, #0]
 8001c18:	         |   6c1b      	ldr	r3, [r3, #64]	; 0x40
 8001c1a:	         |   80bb      	strh	r3, [r7, #4]
        adc.reg_channel_queue[adc.reg_ch_queue_pointer].result = result;
 8001c1c:	         |   4b47      	ldr	r3, [pc, #284]	; (8001d3c <ADC_Handler+0x15a>)
 8001c1e:	         |   f893 30d4 	ldrb.w	r3, [r3, #212]	; 0xd4
 8001c22:	         |   4619      	mov	r1, r3
 8001c24:	         |   4a45      	ldr	r2, [pc, #276]	; (8001d3c <ADC_Handler+0x15a>)
 8001c26:	         |   460b      	mov	r3, r1
 8001c28:	         |   005b      	lsls	r3, r3, #1
 8001c2a:	         |   440b      	add	r3, r1
 8001c2c:	         |   009b      	lsls	r3, r3, #2
 8001c2e:	         |   4413      	add	r3, r2
 8001c30:	         |   330c      	adds	r3, #12
 8001c32:	         |   88ba      	ldrh	r2, [r7, #4]
 8001c34:	         |   801a      	strh	r2, [r3, #0]
        adc.reg_ch_queue_pointer++;
 8001c36:	         |   4b41      	ldr	r3, [pc, #260]	; (8001d3c <ADC_Handler+0x15a>)
 8001c38:	         |   f893 30d4 	ldrb.w	r3, [r3, #212]	; 0xd4
 8001c3c:	         |   3301      	adds	r3, #1
 8001c3e:	         |   b2da      	uxtb	r2, r3
 8001c40:	         |   4b3e      	ldr	r3, [pc, #248]	; (8001d3c <ADC_Handler+0x15a>)
 8001c42:	         |   f883 20d4 	strb.w	r2, [r3, #212]	; 0xd4
    }
    if(adc.ADCx->ISR & ADC_ISR_EOS){  // After the regular sequence is complete
 8001c46:	         \-> 4b3d      	ldr	r3, [pc, #244]	; (8001d3c <ADC_Handler+0x15a>)
 8001c48:	             681b      	ldr	r3, [r3, #0]
 8001c4a:	             681b      	ldr	r3, [r3, #0]
 8001c4c:	             f003 0308 	and.w	r3, r3, #8
 8001c50:	             2b00      	cmp	r3, #0
 8001c52:	/----------- d04f      	beq.n	8001cf4 <ADC_Handler+0x112>
        adc.reg_ch_queue_pointer = 0;
 8001c54:	|            4b39      	ldr	r3, [pc, #228]	; (8001d3c <ADC_Handler+0x15a>)
 8001c56:	|            2200      	movs	r2, #0
 8001c58:	|            f883 20d4 	strb.w	r2, [r3, #212]	; 0xd4
        adc.vdda_mvolt = adc.vrefinternal_cal / (float)(adc.reg_channel_queue[11].result);
 8001c5c:	|            4b37      	ldr	r3, [pc, #220]	; (8001d3c <ADC_Handler+0x15a>)
 8001c5e:	|            f8d3 30d0 	ldr.w	r3, [r3, #208]	; 0xd0
 8001c62:	|            ee07 3a90 	vmov	s15, r3
 8001c66:	|            eef8 6a67 	vcvt.f32.u32	s13, s15
 8001c6a:	|            4b34      	ldr	r3, [pc, #208]	; (8001d3c <ADC_Handler+0x15a>)
 8001c6c:	|            f8b3 3090 	ldrh.w	r3, [r3, #144]	; 0x90
 8001c70:	|            ee07 3a90 	vmov	s15, r3
 8001c74:	|            eeb8 7a67 	vcvt.f32.u32	s14, s15
 8001c78:	|            eec6 7a87 	vdiv.f32	s15, s13, s14
 8001c7c:	|            eefc 7ae7 	vcvt.u32.f32	s15, s15
 8001c80:	|            ee17 3a90 	vmov	r3, s15
 8001c84:	|            b29a      	uxth	r2, r3
 8001c86:	|            4b2d      	ldr	r3, [pc, #180]	; (8001d3c <ADC_Handler+0x15a>)
 8001c88:	|            f8a3 20d6 	strh.w	r2, [r3, #214]	; 0xd6
        for(uint8_t i = 0; i < 11; i++){
 8001c8c:	|            2300      	movs	r3, #0
 8001c8e:	|            71fb      	strb	r3, [r7, #7]
 8001c90:	|     /----- e021      	b.n	8001cd6 <ADC_Handler+0xf4>
            adc.reg_channel_queue[i].result_mv = adc.reg_channel_queue[i].result * adc.vdda_mvolt / 4096;
 8001c92:	|  /--|----> 79fa      	ldrb	r2, [r7, #7]
 8001c94:	|  |  |      4929      	ldr	r1, [pc, #164]	; (8001d3c <ADC_Handler+0x15a>)
 8001c96:	|  |  |      4613      	mov	r3, r2
 8001c98:	|  |  |      005b      	lsls	r3, r3, #1
 8001c9a:	|  |  |      4413      	add	r3, r2
 8001c9c:	|  |  |      009b      	lsls	r3, r3, #2
 8001c9e:	|  |  |      440b      	add	r3, r1
 8001ca0:	|  |  |      330c      	adds	r3, #12
 8001ca2:	|  |  |      881b      	ldrh	r3, [r3, #0]
 8001ca4:	|  |  |      461a      	mov	r2, r3
 8001ca6:	|  |  |      4b25      	ldr	r3, [pc, #148]	; (8001d3c <ADC_Handler+0x15a>)
 8001ca8:	|  |  |      f8b3 30d6 	ldrh.w	r3, [r3, #214]	; 0xd6
 8001cac:	|  |  |      fb02 f303 	mul.w	r3, r2, r3
 8001cb0:	|  |  |      2b00      	cmp	r3, #0
 8001cb2:	|  |  |  /-- da01      	bge.n	8001cb8 <ADC_Handler+0xd6>
 8001cb4:	|  |  |  |   f603 73ff 	addw	r3, r3, #4095	; 0xfff
 8001cb8:	|  |  |  \-> 131b      	asrs	r3, r3, #12
 8001cba:	|  |  |      79fa      	ldrb	r2, [r7, #7]
 8001cbc:	|  |  |      b298      	uxth	r0, r3
 8001cbe:	|  |  |      491f      	ldr	r1, [pc, #124]	; (8001d3c <ADC_Handler+0x15a>)
 8001cc0:	|  |  |      4613      	mov	r3, r2
 8001cc2:	|  |  |      005b      	lsls	r3, r3, #1
 8001cc4:	|  |  |      4413      	add	r3, r2
 8001cc6:	|  |  |      009b      	lsls	r3, r3, #2
 8001cc8:	|  |  |      440b      	add	r3, r1
 8001cca:	|  |  |      330e      	adds	r3, #14
 8001ccc:	|  |  |      4602      	mov	r2, r0
 8001cce:	|  |  |      801a      	strh	r2, [r3, #0]
        for(uint8_t i = 0; i < 11; i++){
 8001cd0:	|  |  |      79fb      	ldrb	r3, [r7, #7]
 8001cd2:	|  |  |      3301      	adds	r3, #1
 8001cd4:	|  |  |      71fb      	strb	r3, [r7, #7]
 8001cd6:	|  |  \----> 79fb      	ldrb	r3, [r7, #7]
 8001cd8:	|  |         2b0a      	cmp	r3, #10
 8001cda:	|  \-------- d9da      	bls.n	8001c92 <ADC_Handler+0xb0>
        }
        adc.ADCx->ISR |= ADC_ISR_EOS;
 8001cdc:	|            4b17      	ldr	r3, [pc, #92]	; (8001d3c <ADC_Handler+0x15a>)
 8001cde:	|            681b      	ldr	r3, [r3, #0]
 8001ce0:	|            681a      	ldr	r2, [r3, #0]
 8001ce2:	|            4b16      	ldr	r3, [pc, #88]	; (8001d3c <ADC_Handler+0x15a>)
 8001ce4:	|            681b      	ldr	r3, [r3, #0]
 8001ce6:	|            f042 0208 	orr.w	r2, r2, #8
 8001cea:	|            601a      	str	r2, [r3, #0]
        adc.measure_process = 0;
 8001cec:	|            4b13      	ldr	r3, [pc, #76]	; (8001d3c <ADC_Handler+0x15a>)
 8001cee:	|            2200      	movs	r2, #0
 8001cf0:	|            f883 20d8 	strb.w	r2, [r3, #216]	; 0xd8
    }
    if(adc.ADCx->ISR & ADC_ISR_JEOC){  // Inside the injected sequence, after each conversion is complete:
 8001cf4:	\----------> 4b11      	ldr	r3, [pc, #68]	; (8001d3c <ADC_Handler+0x15a>)
 8001cf6:	             681b      	ldr	r3, [r3, #0]
 8001cf8:	             681b      	ldr	r3, [r3, #0]
 8001cfa:	             f003 0320 	and.w	r3, r3, #32
 8001cfe:	             2b00      	cmp	r3, #0
 8001d00:	         /-- d007      	beq.n	8001d12 <ADC_Handler+0x130>
        adc.ADCx->ISR |= ADC_ISR_JEOC;
 8001d02:	         |   4b0e      	ldr	r3, [pc, #56]	; (8001d3c <ADC_Handler+0x15a>)
 8001d04:	         |   681b      	ldr	r3, [r3, #0]
 8001d06:	         |   681a      	ldr	r2, [r3, #0]
 8001d08:	         |   4b0c      	ldr	r3, [pc, #48]	; (8001d3c <ADC_Handler+0x15a>)
 8001d0a:	         |   681b      	ldr	r3, [r3, #0]
 8001d0c:	         |   f042 0220 	orr.w	r2, r2, #32
 8001d10:	         |   601a      	str	r2, [r3, #0]
    }
    if(adc.ADCx->ISR & ADC_ISR_JEOS){  // After the injected sequence is complete
 8001d12:	         \-> 4b0a      	ldr	r3, [pc, #40]	; (8001d3c <ADC_Handler+0x15a>)
 8001d14:	             681b      	ldr	r3, [r3, #0]
 8001d16:	             681b      	ldr	r3, [r3, #0]
 8001d18:	             f003 0340 	and.w	r3, r3, #64	; 0x40
 8001d1c:	             2b00      	cmp	r3, #0
 8001d1e:	         /-- d007      	beq.n	8001d30 <ADC_Handler+0x14e>
        adc.ADCx->ISR |= ADC_ISR_JEOS;
 8001d20:	         |   4b06      	ldr	r3, [pc, #24]	; (8001d3c <ADC_Handler+0x15a>)
 8001d22:	         |   681b      	ldr	r3, [r3, #0]
 8001d24:	         |   681a      	ldr	r2, [r3, #0]
 8001d26:	         |   4b05      	ldr	r3, [pc, #20]	; (8001d3c <ADC_Handler+0x15a>)
 8001d28:	         |   681b      	ldr	r3, [r3, #0]
 8001d2a:	         |   f042 0240 	orr.w	r2, r2, #64	; 0x40
 8001d2e:	         |   601a      	str	r2, [r3, #0]
    }
}
 8001d30:	         \-> bf00      	nop
 8001d32:	             370c      	adds	r7, #12
 8001d34:	             46bd      	mov	sp, r7
 8001d36:	             f85d 7b04 	ldr.w	r7, [sp], #4
 8001d3a:	             4770      	bx	lr
 8001d3c:	             0a84      	lsrs	r4, r0, #10
 8001d3e:	             2000      	movs	r0, #0

08001d40 <__NVIC_EnableIRQ>:
{
 8001d40:	    b480      	push	{r7}
 8001d42:	    b083      	sub	sp, #12
 8001d44:	    af00      	add	r7, sp, #0
 8001d46:	    4603      	mov	r3, r0
 8001d48:	    71fb      	strb	r3, [r7, #7]
  if ((int32_t)(IRQn) >= 0)
 8001d4a:	    f997 3007 	ldrsb.w	r3, [r7, #7]
 8001d4e:	    2b00      	cmp	r3, #0
 8001d50:	/-- db0b      	blt.n	8001d6a <__NVIC_EnableIRQ+0x2a>
    NVIC->ISER[(((uint32_t)IRQn) >> 5UL)] = (uint32_t)(1UL << (((uint32_t)IRQn) & 0x1FUL));
 8001d52:	|   79fb      	ldrb	r3, [r7, #7]
 8001d54:	|   f003 021f 	and.w	r2, r3, #31
 8001d58:	|   4907      	ldr	r1, [pc, #28]	; (8001d78 <__NVIC_EnableIRQ+0x38>)
 8001d5a:	|   f997 3007 	ldrsb.w	r3, [r7, #7]
 8001d5e:	|   095b      	lsrs	r3, r3, #5
 8001d60:	|   2001      	movs	r0, #1
 8001d62:	|   fa00 f202 	lsl.w	r2, r0, r2
 8001d66:	|   f841 2023 	str.w	r2, [r1, r3, lsl #2]
}
 8001d6a:	\-> bf00      	nop
 8001d6c:	    370c      	adds	r7, #12
 8001d6e:	    46bd      	mov	sp, r7
 8001d70:	    f85d 7b04 	ldr.w	r7, [sp], #4
 8001d74:	    4770      	bx	lr
 8001d76:	    bf00      	nop
 8001d78:	    e100      	b.n	8001f7c <gpio_init+0x1a4>
 8001d7a:	    e000      	b.n	8001d7e <gpio_calculate+0x2>

08001d7c <gpio_calculate>:
    GPIO_TypeDef *port;
    uint8_t pin;
    uint8_t port_num;
} GPIO_Struct;

GPIO_Struct gpio_calculate(GPIO_Pin gpio){
 8001d7c:	       b480      	push	{r7}
 8001d7e:	       b083      	sub	sp, #12
 8001d80:	       af00      	add	r7, sp, #0
 8001d82:	       6078      	str	r0, [r7, #4]
 8001d84:	       460b      	mov	r3, r1
 8001d86:	       70fb      	strb	r3, [r7, #3]
    if(gpio == uninitialized){
 8001d88:	       78fb      	ldrb	r3, [r7, #3]
 8001d8a:	       2b00      	cmp	r3, #0
 8001d8c:	/----- d100      	bne.n	8001d90 <gpio_calculate+0x14>
        // while(1) NVIC_SystemReset();
        while(1);
 8001d8e:	|  /-- e7fe      	b.n	8001d8e <gpio_calculate+0x12>
    }
    gpio--;
 8001d90:	\----> 78fb      	ldrb	r3, [r7, #3]
 8001d92:	       3b01      	subs	r3, #1
 8001d94:	       70fb      	strb	r3, [r7, #3]
    static GPIO_Struct temp = {0};
	temp.port_num = gpio / NUMBER_OF_PINS_ON_EACH_PORT;  // GPIOA = 1, GPIOB = 2, ..., GPIOE = 5
 8001d96:	       78fb      	ldrb	r3, [r7, #3]
 8001d98:	       091b      	lsrs	r3, r3, #4
 8001d9a:	       b2da      	uxtb	r2, r3
 8001d9c:	       4b0d      	ldr	r3, [pc, #52]	; (8001dd4 <gpio_calculate+0x58>)
 8001d9e:	       715a      	strb	r2, [r3, #5]
	temp.pin = gpio % NUMBER_OF_PINS_ON_EACH_PORT;  // PB0 = 0, PA1 = 1, PD4 = 4
 8001da0:	       78fb      	ldrb	r3, [r7, #3]
 8001da2:	       f003 030f 	and.w	r3, r3, #15
 8001da6:	       b2da      	uxtb	r2, r3
 8001da8:	       4b0a      	ldr	r3, [pc, #40]	; (8001dd4 <gpio_calculate+0x58>)
 8001daa:	       711a      	strb	r2, [r3, #4]
    temp.port = (GPIO_TypeDef *)(AHB2PERIPH_BASE + (0x0400UL * temp.port_num) );
 8001dac:	       4b09      	ldr	r3, [pc, #36]	; (8001dd4 <gpio_calculate+0x58>)
 8001dae:	       795b      	ldrb	r3, [r3, #5]
 8001db0:	       f503 1390 	add.w	r3, r3, #1179648	; 0x120000
 8001db4:	       029b      	lsls	r3, r3, #10
 8001db6:	       461a      	mov	r2, r3
 8001db8:	       4b06      	ldr	r3, [pc, #24]	; (8001dd4 <gpio_calculate+0x58>)
 8001dba:	       601a      	str	r2, [r3, #0]
    return temp;
 8001dbc:	       687b      	ldr	r3, [r7, #4]
 8001dbe:	       4a05      	ldr	r2, [pc, #20]	; (8001dd4 <gpio_calculate+0x58>)
 8001dc0:	       e892 0003 	ldmia.w	r2, {r0, r1}
 8001dc4:	       e883 0003 	stmia.w	r3, {r0, r1}
}
 8001dc8:	       6878      	ldr	r0, [r7, #4]
 8001dca:	       370c      	adds	r7, #12
 8001dcc:	       46bd      	mov	sp, r7
 8001dce:	       f85d 7b04 	ldr.w	r7, [sp], #4
 8001dd2:	       4770      	bx	lr
 8001dd4:	       3c08      	subs	r4, #8
 8001dd6:	       2000      	movs	r0, #0

08001dd8 <gpio_init>:
/// @param gpio   (PA1, PB12, PC0, ...)
/// @param mode   (Input_mode, General_output, Analog_mode, or Alternatuve functions like AF0, AF1, ...)
/// @param config   (Push_pull, Open_drain)
/// @param pull_up_down  (no_pull, pull_up, pull_down)
/// @param speed   (Low_speed, Medium_speed, High_speed, Very_high_speed, Input)
void gpio_init(GPIO_Pin gpio, GPIO_Mode mode, GPIO_Config config, GPIO_Pull pull_up_down, GPIO_Speed speed){
 8001dd8:	          b590      	push	{r4, r7, lr}
 8001dda:	          b085      	sub	sp, #20
 8001ddc:	          af00      	add	r7, sp, #0
 8001dde:	          4604      	mov	r4, r0
 8001de0:	          4608      	mov	r0, r1
 8001de2:	          4611      	mov	r1, r2
 8001de4:	          461a      	mov	r2, r3
 8001de6:	          4623      	mov	r3, r4
 8001de8:	          71fb      	strb	r3, [r7, #7]
 8001dea:	          4603      	mov	r3, r0
 8001dec:	          71bb      	strb	r3, [r7, #6]
 8001dee:	          460b      	mov	r3, r1
 8001df0:	          717b      	strb	r3, [r7, #5]
 8001df2:	          4613      	mov	r3, r2
 8001df4:	          713b      	strb	r3, [r7, #4]
	GPIO_Struct gpio_struct = gpio_calculate(gpio);
 8001df6:	          f107 0308 	add.w	r3, r7, #8
 8001dfa:	          79fa      	ldrb	r2, [r7, #7]
 8001dfc:	          4611      	mov	r1, r2
 8001dfe:	          4618      	mov	r0, r3
 8001e00:	          f7ff ffbc 	bl	8001d7c <gpio_calculate>
    RCC->AHB2ENR |= 1 << gpio_struct.port_num;
 8001e04:	          4b65      	ldr	r3, [pc, #404]	; (8001f9c <gpio_init+0x1c4>)
 8001e06:	          6cdb      	ldr	r3, [r3, #76]	; 0x4c
 8001e08:	          7b7a      	ldrb	r2, [r7, #13]
 8001e0a:	          4611      	mov	r1, r2
 8001e0c:	          2201      	movs	r2, #1
 8001e0e:	          408a      	lsls	r2, r1
 8001e10:	          4611      	mov	r1, r2
 8001e12:	          4a62      	ldr	r2, [pc, #392]	; (8001f9c <gpio_init+0x1c4>)
 8001e14:	          430b      	orrs	r3, r1
 8001e16:	          64d3      	str	r3, [r2, #76]	; 0x4c
	gpio_struct.port->PUPDR &= ~(3 << (gpio_struct.pin * 2));  // pull up / pull down register
 8001e18:	          68bb      	ldr	r3, [r7, #8]
 8001e1a:	          68da      	ldr	r2, [r3, #12]
 8001e1c:	          7b3b      	ldrb	r3, [r7, #12]
 8001e1e:	          005b      	lsls	r3, r3, #1
 8001e20:	          2103      	movs	r1, #3
 8001e22:	          fa01 f303 	lsl.w	r3, r1, r3
 8001e26:	          43db      	mvns	r3, r3
 8001e28:	          4619      	mov	r1, r3
 8001e2a:	          68bb      	ldr	r3, [r7, #8]
 8001e2c:	          400a      	ands	r2, r1
 8001e2e:	          60da      	str	r2, [r3, #12]
	gpio_struct.port->PUPDR |= pull_up_down << (gpio_struct.pin * 2);
 8001e30:	          68bb      	ldr	r3, [r7, #8]
 8001e32:	          68da      	ldr	r2, [r3, #12]
 8001e34:	          7939      	ldrb	r1, [r7, #4]
 8001e36:	          7b3b      	ldrb	r3, [r7, #12]
 8001e38:	          005b      	lsls	r3, r3, #1
 8001e3a:	          fa01 f303 	lsl.w	r3, r1, r3
 8001e3e:	          4619      	mov	r1, r3
 8001e40:	          68bb      	ldr	r3, [r7, #8]
 8001e42:	          430a      	orrs	r2, r1
 8001e44:	          60da      	str	r2, [r3, #12]

	gpio_struct.port->OTYPER &= ~(1 << gpio_struct.pin);
 8001e46:	          68bb      	ldr	r3, [r7, #8]
 8001e48:	          685a      	ldr	r2, [r3, #4]
 8001e4a:	          7b3b      	ldrb	r3, [r7, #12]
 8001e4c:	          4619      	mov	r1, r3
 8001e4e:	          2301      	movs	r3, #1
 8001e50:	          408b      	lsls	r3, r1
 8001e52:	          43db      	mvns	r3, r3
 8001e54:	          4619      	mov	r1, r3
 8001e56:	          68bb      	ldr	r3, [r7, #8]
 8001e58:	          400a      	ands	r2, r1
 8001e5a:	          605a      	str	r2, [r3, #4]
	gpio_struct.port->OTYPER |= (config << gpio_struct.pin);
 8001e5c:	          68bb      	ldr	r3, [r7, #8]
 8001e5e:	          685a      	ldr	r2, [r3, #4]
 8001e60:	          797b      	ldrb	r3, [r7, #5]
 8001e62:	          7b39      	ldrb	r1, [r7, #12]
 8001e64:	          408b      	lsls	r3, r1
 8001e66:	          4619      	mov	r1, r3
 8001e68:	          68bb      	ldr	r3, [r7, #8]
 8001e6a:	          430a      	orrs	r2, r1
 8001e6c:	          605a      	str	r2, [r3, #4]

	gpio_struct.port->OSPEEDR &= ~(3 << (gpio_struct.pin * 2));
 8001e6e:	          68bb      	ldr	r3, [r7, #8]
 8001e70:	          689a      	ldr	r2, [r3, #8]
 8001e72:	          7b3b      	ldrb	r3, [r7, #12]
 8001e74:	          005b      	lsls	r3, r3, #1
 8001e76:	          2103      	movs	r1, #3
 8001e78:	          fa01 f303 	lsl.w	r3, r1, r3
 8001e7c:	          43db      	mvns	r3, r3
 8001e7e:	          4619      	mov	r1, r3
 8001e80:	          68bb      	ldr	r3, [r7, #8]
 8001e82:	          400a      	ands	r2, r1
 8001e84:	          609a      	str	r2, [r3, #8]
	if(speed != Input) gpio_struct.port->OSPEEDR |= speed << (gpio_struct.pin * 2);
 8001e86:	          f897 3020 	ldrb.w	r3, [r7, #32]
 8001e8a:	          2b04      	cmp	r3, #4
 8001e8c:	      /-- d00b      	beq.n	8001ea6 <gpio_init+0xce>
 8001e8e:	      |   68bb      	ldr	r3, [r7, #8]
 8001e90:	      |   689a      	ldr	r2, [r3, #8]
 8001e92:	      |   f897 1020 	ldrb.w	r1, [r7, #32]
 8001e96:	      |   7b3b      	ldrb	r3, [r7, #12]
 8001e98:	      |   005b      	lsls	r3, r3, #1
 8001e9a:	      |   fa01 f303 	lsl.w	r3, r1, r3
 8001e9e:	      |   4619      	mov	r1, r3
 8001ea0:	      |   68bb      	ldr	r3, [r7, #8]
 8001ea2:	      |   430a      	orrs	r2, r1
 8001ea4:	      |   609a      	str	r2, [r3, #8]

	if(mode > 3){
 8001ea6:	      \-> 79bb      	ldrb	r3, [r7, #6]
 8001ea8:	          2b03      	cmp	r3, #3
 8001eaa:	/-------- d95b      	bls.n	8001f64 <gpio_init+0x18c>
		gpio_struct.port->MODER &= ~(3 << (gpio_struct.pin * 2));
 8001eac:	|         68bb      	ldr	r3, [r7, #8]
 8001eae:	|         681a      	ldr	r2, [r3, #0]
 8001eb0:	|         7b3b      	ldrb	r3, [r7, #12]
 8001eb2:	|         005b      	lsls	r3, r3, #1
 8001eb4:	|         2103      	movs	r1, #3
 8001eb6:	|         fa01 f303 	lsl.w	r3, r1, r3
 8001eba:	|         43db      	mvns	r3, r3
 8001ebc:	|         4619      	mov	r1, r3
 8001ebe:	|         68bb      	ldr	r3, [r7, #8]
 8001ec0:	|         400a      	ands	r2, r1
 8001ec2:	|         601a      	str	r2, [r3, #0]
		gpio_struct.port->MODER |= 2 << (gpio_struct.pin * 2);
 8001ec4:	|         68bb      	ldr	r3, [r7, #8]
 8001ec6:	|         681a      	ldr	r2, [r3, #0]
 8001ec8:	|         7b3b      	ldrb	r3, [r7, #12]
 8001eca:	|         005b      	lsls	r3, r3, #1
 8001ecc:	|         2102      	movs	r1, #2
 8001ece:	|         fa01 f303 	lsl.w	r3, r1, r3
 8001ed2:	|         4619      	mov	r1, r3
 8001ed4:	|         68bb      	ldr	r3, [r7, #8]
 8001ed6:	|         430a      	orrs	r2, r1
 8001ed8:	|         601a      	str	r2, [r3, #0]

		gpio_struct.port->AFR[gpio_struct.pin/8] &= ~(0x0F << (gpio_struct.pin * 4));
 8001eda:	|         68bb      	ldr	r3, [r7, #8]
 8001edc:	|         7b3a      	ldrb	r2, [r7, #12]
 8001ede:	|         08d2      	lsrs	r2, r2, #3
 8001ee0:	|         b2d0      	uxtb	r0, r2
 8001ee2:	|         4602      	mov	r2, r0
 8001ee4:	|         3208      	adds	r2, #8
 8001ee6:	|         f853 2022 	ldr.w	r2, [r3, r2, lsl #2]
 8001eea:	|         7b3b      	ldrb	r3, [r7, #12]
 8001eec:	|         009b      	lsls	r3, r3, #2
 8001eee:	|         210f      	movs	r1, #15
 8001ef0:	|         fa01 f303 	lsl.w	r3, r1, r3
 8001ef4:	|         43db      	mvns	r3, r3
 8001ef6:	|         4619      	mov	r1, r3
 8001ef8:	|         68bb      	ldr	r3, [r7, #8]
 8001efa:	|         4011      	ands	r1, r2
 8001efc:	|         f100 0208 	add.w	r2, r0, #8
 8001f00:	|         f843 1022 	str.w	r1, [r3, r2, lsl #2]
		gpio_struct.pin/8 == 0 ? (gpio_struct.port->AFR[gpio_struct.pin/8] |= ((mode-4) << (gpio_struct.pin * 4))) : (gpio_struct.port->AFR[gpio_struct.pin/8] |= ((mode-4) << ((gpio_struct.pin-8) * 4)));
 8001f04:	|         7b3b      	ldrb	r3, [r7, #12]
 8001f06:	|         2b07      	cmp	r3, #7
 8001f08:	|     /-- d815      	bhi.n	8001f36 <gpio_init+0x15e>
 8001f0a:	|     |   68bb      	ldr	r3, [r7, #8]
 8001f0c:	|     |   7b3a      	ldrb	r2, [r7, #12]
 8001f0e:	|     |   08d2      	lsrs	r2, r2, #3
 8001f10:	|     |   b2d0      	uxtb	r0, r2
 8001f12:	|     |   4602      	mov	r2, r0
 8001f14:	|     |   3208      	adds	r2, #8
 8001f16:	|     |   f853 2022 	ldr.w	r2, [r3, r2, lsl #2]
 8001f1a:	|     |   79bb      	ldrb	r3, [r7, #6]
 8001f1c:	|     |   1f19      	subs	r1, r3, #4
 8001f1e:	|     |   7b3b      	ldrb	r3, [r7, #12]
 8001f20:	|     |   009b      	lsls	r3, r3, #2
 8001f22:	|     |   fa01 f303 	lsl.w	r3, r1, r3
 8001f26:	|     |   4619      	mov	r1, r3
 8001f28:	|     |   68bb      	ldr	r3, [r7, #8]
 8001f2a:	|     |   4311      	orrs	r1, r2
 8001f2c:	|     |   f100 0208 	add.w	r2, r0, #8
 8001f30:	|     |   f843 1022 	str.w	r1, [r3, r2, lsl #2]
	}
	else{
		gpio_struct.port->MODER &= ~(3 << (gpio_struct.pin * 2));
		gpio_struct.port->MODER |= mode << (gpio_struct.pin * 2);
	}
}
 8001f34:	|  /--|-- e02d      	b.n	8001f92 <gpio_init+0x1ba>
		gpio_struct.pin/8 == 0 ? (gpio_struct.port->AFR[gpio_struct.pin/8] |= ((mode-4) << (gpio_struct.pin * 4))) : (gpio_struct.port->AFR[gpio_struct.pin/8] |= ((mode-4) << ((gpio_struct.pin-8) * 4)));
 8001f36:	|  |  \-> 68bb      	ldr	r3, [r7, #8]
 8001f38:	|  |      7b3a      	ldrb	r2, [r7, #12]
 8001f3a:	|  |      08d2      	lsrs	r2, r2, #3
 8001f3c:	|  |      b2d0      	uxtb	r0, r2
 8001f3e:	|  |      4602      	mov	r2, r0
 8001f40:	|  |      3208      	adds	r2, #8
 8001f42:	|  |      f853 2022 	ldr.w	r2, [r3, r2, lsl #2]
 8001f46:	|  |      79bb      	ldrb	r3, [r7, #6]
 8001f48:	|  |      1f19      	subs	r1, r3, #4
 8001f4a:	|  |      7b3b      	ldrb	r3, [r7, #12]
 8001f4c:	|  |      3b08      	subs	r3, #8
 8001f4e:	|  |      009b      	lsls	r3, r3, #2
 8001f50:	|  |      fa01 f303 	lsl.w	r3, r1, r3
 8001f54:	|  |      4619      	mov	r1, r3
 8001f56:	|  |      68bb      	ldr	r3, [r7, #8]
 8001f58:	|  |      4311      	orrs	r1, r2
 8001f5a:	|  |      f100 0208 	add.w	r2, r0, #8
 8001f5e:	|  |      f843 1022 	str.w	r1, [r3, r2, lsl #2]
}
 8001f62:	|  +----- e016      	b.n	8001f92 <gpio_init+0x1ba>
		gpio_struct.port->MODER &= ~(3 << (gpio_struct.pin * 2));
 8001f64:	\--|----> 68bb      	ldr	r3, [r7, #8]
 8001f66:	   |      681a      	ldr	r2, [r3, #0]
 8001f68:	   |      7b3b      	ldrb	r3, [r7, #12]
 8001f6a:	   |      005b      	lsls	r3, r3, #1
 8001f6c:	   |      2103      	movs	r1, #3
 8001f6e:	   |      fa01 f303 	lsl.w	r3, r1, r3
 8001f72:	   |      43db      	mvns	r3, r3
 8001f74:	   |      4619      	mov	r1, r3
 8001f76:	   |      68bb      	ldr	r3, [r7, #8]
 8001f78:	   |      400a      	ands	r2, r1
 8001f7a:	   |      601a      	str	r2, [r3, #0]
		gpio_struct.port->MODER |= mode << (gpio_struct.pin * 2);
 8001f7c:	   |      68bb      	ldr	r3, [r7, #8]
 8001f7e:	   |      681a      	ldr	r2, [r3, #0]
 8001f80:	   |      79b9      	ldrb	r1, [r7, #6]
 8001f82:	   |      7b3b      	ldrb	r3, [r7, #12]
 8001f84:	   |      005b      	lsls	r3, r3, #1
 8001f86:	   |      fa01 f303 	lsl.w	r3, r1, r3
 8001f8a:	   |      4619      	mov	r1, r3
 8001f8c:	   |      68bb      	ldr	r3, [r7, #8]
 8001f8e:	   |      430a      	orrs	r2, r1
 8001f90:	   |      601a      	str	r2, [r3, #0]
}
 8001f92:	   \----> bf00      	nop
 8001f94:	          3714      	adds	r7, #20
 8001f96:	          46bd      	mov	sp, r7
 8001f98:	          bd90      	pop	{r4, r7, pc}
 8001f9a:	          bf00      	nop
 8001f9c:	          1000      	asrs	r0, r0, #32
 8001f9e:	          4002      	ands	r2, r0

08001fa0 <gpio_state>:

/// @brief      state (LOW or HIGH)
/// @param gpio   (PA0, PA1, ...)
/// @param state LOW or HIGH
void gpio_state(GPIO_Pin gpio, GPIO_State state){
 8001fa0:	          b580      	push	{r7, lr}
 8001fa2:	          b084      	sub	sp, #16
 8001fa4:	          af00      	add	r7, sp, #0
 8001fa6:	          4603      	mov	r3, r0
 8001fa8:	          460a      	mov	r2, r1
 8001faa:	          71fb      	strb	r3, [r7, #7]
 8001fac:	          4613      	mov	r3, r2
 8001fae:	          71bb      	strb	r3, [r7, #6]
    if(state == LOW || state == HIGH){
 8001fb0:	          79bb      	ldrb	r3, [r7, #6]
 8001fb2:	          2b00      	cmp	r3, #0
 8001fb4:	      /-- d002      	beq.n	8001fbc <gpio_state+0x1c>
 8001fb6:	      |   79bb      	ldrb	r3, [r7, #6]
 8001fb8:	      |   2b01      	cmp	r3, #1
 8001fba:	/-----|-- d113      	bne.n	8001fe4 <gpio_state+0x44>
        GPIO_Struct gpio_struct = gpio_calculate(gpio);
 8001fbc:	|     \-> f107 0308 	add.w	r3, r7, #8
 8001fc0:	|         79fa      	ldrb	r2, [r7, #7]
 8001fc2:	|         4611      	mov	r1, r2
 8001fc4:	|         4618      	mov	r0, r3
 8001fc6:	|         f7ff fed9 	bl	8001d7c <gpio_calculate>
        gpio_struct.port->BSRR = 0x01 << (gpio_struct.pin + (!state) * 16);
 8001fca:	|         7b3b      	ldrb	r3, [r7, #12]
 8001fcc:	|         461a      	mov	r2, r3
 8001fce:	|         79bb      	ldrb	r3, [r7, #6]
 8001fd0:	|         2b00      	cmp	r3, #0
 8001fd2:	|  /----- d101      	bne.n	8001fd8 <gpio_state+0x38>
 8001fd4:	|  |      2310      	movs	r3, #16
 8001fd6:	|  |  /-- e000      	b.n	8001fda <gpio_state+0x3a>
 8001fd8:	|  \--|-> 2300      	movs	r3, #0
 8001fda:	|     \-> 4413      	add	r3, r2
 8001fdc:	|         2201      	movs	r2, #1
 8001fde:	|         409a      	lsls	r2, r3
 8001fe0:	|         68bb      	ldr	r3, [r7, #8]
 8001fe2:	|         619a      	str	r2, [r3, #24]
    }
}
 8001fe4:	\-------> bf00      	nop
 8001fe6:	          3710      	adds	r7, #16
 8001fe8:	          46bd      	mov	sp, r7
 8001fea:	          bd80      	pop	{r7, pc}

08001fec <gpio_toggle>:

/// @brief   
/// @param gpio   (PA0, PA1, ...)
void gpio_toggle(GPIO_Pin gpio){
 8001fec:	b580      	push	{r7, lr}
 8001fee:	b084      	sub	sp, #16
 8001ff0:	af00      	add	r7, sp, #0
 8001ff2:	4603      	mov	r3, r0
 8001ff4:	71fb      	strb	r3, [r7, #7]
    GPIO_Struct gpio_struct = gpio_calculate(gpio);
 8001ff6:	f107 0308 	add.w	r3, r7, #8
 8001ffa:	79fa      	ldrb	r2, [r7, #7]
 8001ffc:	4611      	mov	r1, r2
 8001ffe:	4618      	mov	r0, r3
 8002000:	f7ff febc 	bl	8001d7c <gpio_calculate>
	gpio_struct.port->ODR ^= 0x01 << gpio_struct.pin;
 8002004:	68bb      	ldr	r3, [r7, #8]
 8002006:	695a      	ldr	r2, [r3, #20]
 8002008:	7b3b      	ldrb	r3, [r7, #12]
 800200a:	4619      	mov	r1, r3
 800200c:	2301      	movs	r3, #1
 800200e:	408b      	lsls	r3, r1
 8002010:	4619      	mov	r1, r3
 8002012:	68bb      	ldr	r3, [r7, #8]
 8002014:	404a      	eors	r2, r1
 8002016:	615a      	str	r2, [r3, #20]
}
 8002018:	bf00      	nop
 800201a:	3710      	adds	r7, #16
 800201c:	46bd      	mov	sp, r7
 800201e:	bd80      	pop	{r7, pc}

08002020 <gpio_read>:

/// @brief     
/// @param gpio   (PA0, PA1, ...)
/// @return LOW or HIGH
GPIO_State gpio_read(GPIO_Pin gpio){
 8002020:	b580      	push	{r7, lr}
 8002022:	b084      	sub	sp, #16
 8002024:	af00      	add	r7, sp, #0
 8002026:	4603      	mov	r3, r0
 8002028:	71fb      	strb	r3, [r7, #7]
    GPIO_Struct gpio_struct = gpio_calculate(gpio);
 800202a:	f107 0308 	add.w	r3, r7, #8
 800202e:	79fa      	ldrb	r2, [r7, #7]
 8002030:	4611      	mov	r1, r2
 8002032:	4618      	mov	r0, r3
 8002034:	f7ff fea2 	bl	8001d7c <gpio_calculate>
    return (gpio_struct.port->IDR & (0x01 << gpio_struct.pin)) >> gpio_struct.pin;
 8002038:	68bb      	ldr	r3, [r7, #8]
 800203a:	691b      	ldr	r3, [r3, #16]
 800203c:	7b3a      	ldrb	r2, [r7, #12]
 800203e:	4611      	mov	r1, r2
 8002040:	2201      	movs	r2, #1
 8002042:	408a      	lsls	r2, r1
 8002044:	4013      	ands	r3, r2
 8002046:	7b3a      	ldrb	r2, [r7, #12]
 8002048:	40d3      	lsrs	r3, r2
 800204a:	b2db      	uxtb	r3, r3
}
 800204c:	4618      	mov	r0, r3
 800204e:	3710      	adds	r7, #16
 8002050:	46bd      	mov	sp, r7
 8002052:	bd80      	pop	{r7, pc}

08002054 <gpio_exti_init>:

void gpio_exti_init(GPIO_Pin gpio, uint8_t mode){
 8002054:	          b580      	push	{r7, lr}
 8002056:	          b086      	sub	sp, #24
 8002058:	          af02      	add	r7, sp, #8
 800205a:	          4603      	mov	r3, r0
 800205c:	          460a      	mov	r2, r1
 800205e:	          71fb      	strb	r3, [r7, #7]
 8002060:	          4613      	mov	r3, r2
 8002062:	          71bb      	strb	r3, [r7, #6]
    if(gpio != uninitialized){
 8002064:	          79fb      	ldrb	r3, [r7, #7]
 8002066:	          2b00      	cmp	r3, #0
 8002068:	/-------- d07c      	beq.n	8002164 <gpio_exti_init+0x110>
        RCC->APB2ENR |= RCC_APB2ENR_SYSCFGEN;
 800206a:	|         4b40      	ldr	r3, [pc, #256]	; (800216c <gpio_exti_init+0x118>)
 800206c:	|         6e1b      	ldr	r3, [r3, #96]	; 0x60
 800206e:	|         4a3f      	ldr	r2, [pc, #252]	; (800216c <gpio_exti_init+0x118>)
 8002070:	|         f043 0301 	orr.w	r3, r3, #1
 8002074:	|         6613      	str	r3, [r2, #96]	; 0x60
        gpio_init(gpio, Input_mode, Open_drain, no_pull, Input);
 8002076:	|         79f8      	ldrb	r0, [r7, #7]
 8002078:	|         2304      	movs	r3, #4
 800207a:	|         9300      	str	r3, [sp, #0]
 800207c:	|         2300      	movs	r3, #0
 800207e:	|         2201      	movs	r2, #1
 8002080:	|         2100      	movs	r1, #0
 8002082:	|         f7ff fea9 	bl	8001dd8 <gpio_init>
        gpio--;
 8002086:	|         79fb      	ldrb	r3, [r7, #7]
 8002088:	|         3b01      	subs	r3, #1
 800208a:	|         71fb      	strb	r3, [r7, #7]
        uint8_t port_num = (gpio / 16);  // GPIOA = 0, GPIOB = 1, ..., GPIOE = 4
 800208c:	|         79fb      	ldrb	r3, [r7, #7]
 800208e:	|         091b      	lsrs	r3, r3, #4
 8002090:	|         73fb      	strb	r3, [r7, #15]
        uint8_t pin = gpio % 16;  // PB0 = 0, PA1 = 1, PD4 = 4
 8002092:	|         79fb      	ldrb	r3, [r7, #7]
 8002094:	|         f003 030f 	and.w	r3, r3, #15
 8002098:	|         73bb      	strb	r3, [r7, #14]
        // EXTI->IMR1 |= EXTI_IMR1_IM4;
        EXTI->IMR1 |= 1 << pin;   // generate interrupt
 800209a:	|         4b35      	ldr	r3, [pc, #212]	; (8002170 <gpio_exti_init+0x11c>)
 800209c:	|         681b      	ldr	r3, [r3, #0]
 800209e:	|         7bba      	ldrb	r2, [r7, #14]
 80020a0:	|         2101      	movs	r1, #1
 80020a2:	|         fa01 f202 	lsl.w	r2, r1, r2
 80020a6:	|         4611      	mov	r1, r2
 80020a8:	|         4a31      	ldr	r2, [pc, #196]	; (8002170 <gpio_exti_init+0x11c>)
 80020aa:	|         430b      	orrs	r3, r1
 80020ac:	|         6013      	str	r3, [r2, #0]
        // EXTI->EMR1 |= pin;   // generate event
        if(mode == 0) EXTI->RTSR1 |= 1 << pin;
 80020ae:	|         79bb      	ldrb	r3, [r7, #6]
 80020b0:	|         2b00      	cmp	r3, #0
 80020b2:	|     /-- d10a      	bne.n	80020ca <gpio_exti_init+0x76>
 80020b4:	|     |   4b2e      	ldr	r3, [pc, #184]	; (8002170 <gpio_exti_init+0x11c>)
 80020b6:	|     |   689b      	ldr	r3, [r3, #8]
 80020b8:	|     |   7bba      	ldrb	r2, [r7, #14]
 80020ba:	|     |   2101      	movs	r1, #1
 80020bc:	|     |   fa01 f202 	lsl.w	r2, r1, r2
 80020c0:	|     |   4611      	mov	r1, r2
 80020c2:	|     |   4a2b      	ldr	r2, [pc, #172]	; (8002170 <gpio_exti_init+0x11c>)
 80020c4:	|     |   430b      	orrs	r3, r1
 80020c6:	|     |   6093      	str	r3, [r2, #8]
 80020c8:	|  /--|-- e024      	b.n	8002114 <gpio_exti_init+0xc0>
        else if(mode == 1) EXTI->FTSR1 |= 1 << pin;
 80020ca:	|  |  \-> 79bb      	ldrb	r3, [r7, #6]
 80020cc:	|  |      2b01      	cmp	r3, #1
 80020ce:	|  |  /-- d10a      	bne.n	80020e6 <gpio_exti_init+0x92>
 80020d0:	|  |  |   4b27      	ldr	r3, [pc, #156]	; (8002170 <gpio_exti_init+0x11c>)
 80020d2:	|  |  |   68db      	ldr	r3, [r3, #12]
 80020d4:	|  |  |   7bba      	ldrb	r2, [r7, #14]
 80020d6:	|  |  |   2101      	movs	r1, #1
 80020d8:	|  |  |   fa01 f202 	lsl.w	r2, r1, r2
 80020dc:	|  |  |   4611      	mov	r1, r2
 80020de:	|  |  |   4a24      	ldr	r2, [pc, #144]	; (8002170 <gpio_exti_init+0x11c>)
 80020e0:	|  |  |   430b      	orrs	r3, r1
 80020e2:	|  |  |   60d3      	str	r3, [r2, #12]
 80020e4:	|  +--|-- e016      	b.n	8002114 <gpio_exti_init+0xc0>
        else if(mode == 2){
 80020e6:	|  |  \-> 79bb      	ldrb	r3, [r7, #6]
 80020e8:	|  |      2b02      	cmp	r3, #2
 80020ea:	|  +----- d113      	bne.n	8002114 <gpio_exti_init+0xc0>
            EXTI->RTSR1 |= 1 << pin;
 80020ec:	|  |      4b20      	ldr	r3, [pc, #128]	; (8002170 <gpio_exti_init+0x11c>)
 80020ee:	|  |      689b      	ldr	r3, [r3, #8]
 80020f0:	|  |      7bba      	ldrb	r2, [r7, #14]
 80020f2:	|  |      2101      	movs	r1, #1
 80020f4:	|  |      fa01 f202 	lsl.w	r2, r1, r2
 80020f8:	|  |      4611      	mov	r1, r2
 80020fa:	|  |      4a1d      	ldr	r2, [pc, #116]	; (8002170 <gpio_exti_init+0x11c>)
 80020fc:	|  |      430b      	orrs	r3, r1
 80020fe:	|  |      6093      	str	r3, [r2, #8]
            EXTI->FTSR1 |= 1 << pin;
 8002100:	|  |      4b1b      	ldr	r3, [pc, #108]	; (8002170 <gpio_exti_init+0x11c>)
 8002102:	|  |      68db      	ldr	r3, [r3, #12]
 8002104:	|  |      7bba      	ldrb	r2, [r7, #14]
 8002106:	|  |      2101      	movs	r1, #1
 8002108:	|  |      fa01 f202 	lsl.w	r2, r1, r2
 800210c:	|  |      4611      	mov	r1, r2
 800210e:	|  |      4a18      	ldr	r2, [pc, #96]	; (8002170 <gpio_exti_init+0x11c>)
 8002110:	|  |      430b      	orrs	r3, r1
 8002112:	|  |      60d3      	str	r3, [r2, #12]
        }
        SYSCFG->EXTICR[pin / 4] |= port_num << (4 * (pin % 4));
 8002114:	|  \----> 4a17      	ldr	r2, [pc, #92]	; (8002174 <gpio_exti_init+0x120>)
 8002116:	|         7bbb      	ldrb	r3, [r7, #14]
 8002118:	|         089b      	lsrs	r3, r3, #2
 800211a:	|         b2d8      	uxtb	r0, r3
 800211c:	|         4603      	mov	r3, r0
 800211e:	|         3302      	adds	r3, #2
 8002120:	|         f852 3023 	ldr.w	r3, [r2, r3, lsl #2]
 8002124:	|         7bf9      	ldrb	r1, [r7, #15]
 8002126:	|         7bba      	ldrb	r2, [r7, #14]
 8002128:	|         f002 0203 	and.w	r2, r2, #3
 800212c:	|         0092      	lsls	r2, r2, #2
 800212e:	|         fa01 f202 	lsl.w	r2, r1, r2
 8002132:	|         4910      	ldr	r1, [pc, #64]	; (8002174 <gpio_exti_init+0x120>)
 8002134:	|         431a      	orrs	r2, r3
 8002136:	|         1c83      	adds	r3, r0, #2
 8002138:	|         f841 2023 	str.w	r2, [r1, r3, lsl #2]
        if(pin < 5) NVIC_EnableIRQ(EXTI4_IRQn);
 800213c:	|         7bbb      	ldrb	r3, [r7, #14]
 800213e:	|         2b04      	cmp	r3, #4
 8002140:	|     /-- d803      	bhi.n	800214a <gpio_exti_init+0xf6>
 8002142:	|     |   200a      	movs	r0, #10
 8002144:	|     |   f7ff fdfc 	bl	8001d40 <__NVIC_EnableIRQ>
        else if(pin < 10) NVIC_EnableIRQ(EXTI9_5_IRQn);
        else if(pin < 16) NVIC_EnableIRQ(EXTI15_10_IRQn);
    }
 8002148:	+-----|-- e00c      	b.n	8002164 <gpio_exti_init+0x110>
        else if(pin < 10) NVIC_EnableIRQ(EXTI9_5_IRQn);
 800214a:	|     \-> 7bbb      	ldrb	r3, [r7, #14]
 800214c:	|         2b09      	cmp	r3, #9
 800214e:	|     /-- d803      	bhi.n	8002158 <gpio_exti_init+0x104>
 8002150:	|     |   2017      	movs	r0, #23
 8002152:	|     |   f7ff fdf5 	bl	8001d40 <__NVIC_EnableIRQ>
 8002156:	+-----|-- e005      	b.n	8002164 <gpio_exti_init+0x110>
        else if(pin < 16) NVIC_EnableIRQ(EXTI15_10_IRQn);
 8002158:	|     \-> 7bbb      	ldrb	r3, [r7, #14]
 800215a:	|         2b0f      	cmp	r3, #15
 800215c:	+-------- d802      	bhi.n	8002164 <gpio_exti_init+0x110>
 800215e:	|         2028      	movs	r0, #40	; 0x28
 8002160:	|         f7ff fdee 	bl	8001d40 <__NVIC_EnableIRQ>
 8002164:	\-------> bf00      	nop
 8002166:	          3710      	adds	r7, #16
 8002168:	          46bd      	mov	sp, r7
 800216a:	          bd80      	pop	{r7, pc}
 800216c:	          1000      	asrs	r0, r0, #32
 800216e:	          4002      	ands	r2, r0
 8002170:	          0400      	lsls	r0, r0, #16
 8002172:	          4001      	ands	r1, r0
 8002174:	          0000      	movs	r0, r0
 8002176:	          4001      	ands	r1, r0

08002178 <I2C_init>:
#include "i2c.h"
#include "stm32l4xx.h"


void I2C_init(I2C_TypeDef *I2Cx){
 8002178:	          b480      	push	{r7}
 800217a:	          b083      	sub	sp, #12
 800217c:	          af00      	add	r7, sp, #0
 800217e:	          6078      	str	r0, [r7, #4]
	if(I2Cx == I2C1){
 8002180:	          687b      	ldr	r3, [r7, #4]
 8002182:	          4a28      	ldr	r2, [pc, #160]	; (8002224 <I2C_init+0xac>)
 8002184:	          4293      	cmp	r3, r2
 8002186:	      /-- d106      	bne.n	8002196 <I2C_init+0x1e>
		RCC->APB1ENR1 |= RCC_APB1ENR1_I2C1EN;
 8002188:	      |   4b27      	ldr	r3, [pc, #156]	; (8002228 <I2C_init+0xb0>)
 800218a:	      |   6d9b      	ldr	r3, [r3, #88]	; 0x58
 800218c:	      |   4a26      	ldr	r2, [pc, #152]	; (8002228 <I2C_init+0xb0>)
 800218e:	      |   f443 1300 	orr.w	r3, r3, #2097152	; 0x200000
 8002192:	      |   6593      	str	r3, [r2, #88]	; 0x58
 8002194:	   /--|-- e014      	b.n	80021c0 <I2C_init+0x48>
	}
	else if(I2Cx == I2C2){
 8002196:	   |  \-> 687b      	ldr	r3, [r7, #4]
 8002198:	   |      4a24      	ldr	r2, [pc, #144]	; (800222c <I2C_init+0xb4>)
 800219a:	   |      4293      	cmp	r3, r2
 800219c:	   |  /-- d106      	bne.n	80021ac <I2C_init+0x34>
		RCC->APB1ENR1 |= RCC_APB1ENR1_I2C2EN;
 800219e:	   |  |   4b22      	ldr	r3, [pc, #136]	; (8002228 <I2C_init+0xb0>)
 80021a0:	   |  |   6d9b      	ldr	r3, [r3, #88]	; 0x58
 80021a2:	   |  |   4a21      	ldr	r2, [pc, #132]	; (8002228 <I2C_init+0xb0>)
 80021a4:	   |  |   f443 0380 	orr.w	r3, r3, #4194304	; 0x400000
 80021a8:	   |  |   6593      	str	r3, [r2, #88]	; 0x58
 80021aa:	   +--|-- e009      	b.n	80021c0 <I2C_init+0x48>
	}
	else if(I2Cx == I2C3){
 80021ac:	   |  \-> 687b      	ldr	r3, [r7, #4]
 80021ae:	   |      4a20      	ldr	r2, [pc, #128]	; (8002230 <I2C_init+0xb8>)
 80021b0:	   |      4293      	cmp	r3, r2
 80021b2:	/--|----- d130      	bne.n	8002216 <I2C_init+0x9e>
		RCC->APB1ENR1 |= RCC_APB1ENR1_I2C3EN;
 80021b4:	|  |      4b1c      	ldr	r3, [pc, #112]	; (8002228 <I2C_init+0xb0>)
 80021b6:	|  |      6d9b      	ldr	r3, [r3, #88]	; 0x58
 80021b8:	|  |      4a1b      	ldr	r2, [pc, #108]	; (8002228 <I2C_init+0xb0>)
 80021ba:	|  |      f443 0300 	orr.w	r3, r3, #8388608	; 0x800000
 80021be:	|  |      6593      	str	r3, [r2, #88]	; 0x58
	}
	else{
		return;
	}

	I2Cx->CR2 |= I2C_CR2_AUTOEND;
 80021c0:	|  \----> 687b      	ldr	r3, [r7, #4]
 80021c2:	|         685b      	ldr	r3, [r3, #4]
 80021c4:	|         f043 7200 	orr.w	r2, r3, #33554432	; 0x2000000
 80021c8:	|         687b      	ldr	r3, [r7, #4]
 80021ca:	|         605a      	str	r2, [r3, #4]
	I2Cx->OAR2 &= ~I2C_OAR2_OA2EN;
 80021cc:	|         687b      	ldr	r3, [r7, #4]
 80021ce:	|         68db      	ldr	r3, [r3, #12]
 80021d0:	|         f423 4200 	bic.w	r2, r3, #32768	; 0x8000
 80021d4:	|         687b      	ldr	r3, [r7, #4]
 80021d6:	|         60da      	str	r2, [r3, #12]
	I2Cx->CR1 &= ~I2C_CR1_GCEN;
 80021d8:	|         687b      	ldr	r3, [r7, #4]
 80021da:	|         681b      	ldr	r3, [r3, #0]
 80021dc:	|         f423 2200 	bic.w	r2, r3, #524288	; 0x80000
 80021e0:	|         687b      	ldr	r3, [r7, #4]
 80021e2:	|         601a      	str	r2, [r3, #0]
	I2Cx->CR1 &= ~I2C_CR1_NOSTRETCH;
 80021e4:	|         687b      	ldr	r3, [r7, #4]
 80021e6:	|         681b      	ldr	r3, [r3, #0]
 80021e8:	|         f423 3200 	bic.w	r2, r3, #131072	; 0x20000
 80021ec:	|         687b      	ldr	r3, [r7, #4]
 80021ee:	|         601a      	str	r2, [r3, #0]
	// I2Cx->TIMINGR = 0x00702991; //Sysclk = 80 MHz I2Cmode = fast (400kHz)
	// I2Cx->TIMINGR = 0x00000004; //Sysclk = 4 MHz  I2Cmode = fast (400kHz)
	I2Cx->TIMINGR = 0x00000E14; //Sysclk = 4 MHz  I2Cmode = standart (100kHz)
 80021f0:	|         687b      	ldr	r3, [r7, #4]
